(dp1
S'output'
p2
S"<type 'exceptions.NameError'> global name 'chart2' is not defined"
p3
sS'layer'
p4
S'C:\\Python27\\web2py\\applications\\Graficos\\controllers/tela.py'
p5
sS'code'
p6
S'# -*- coding: utf-8 -*-\n\nfrom gluon.custom_import import track_changes\ntrack_changes(True)\n\nimport highcharts_thema\n\nfrom highcharts import clock\nfrom highcharts import chart\n\n\ndef index():\n    \n    #chart1 = grafico.chart(\'column\', \'container01\')\n\n    chart1 = clock(\'gauge\', \'container\')\n        \n    \n    a = html(chart1, chart2)\n\n\n    largura = 1440\n    altura = 860\n\n    nmlinhas = 2\n    nmcolunas = 1\n\n\n    return a\n\ndef html(strchart1, strchart2, largura, altura, nmcolunas, nmlinhas):\n\n\n    largcel = largura / nmcolunas\n    altcel = altura / nmlinhas\n\n\n    strtd = criacolunas(largcel, altcel, 0, strchart1, strchart2, nmcolunas)    \n    \n    trlinha = (DIV(strtd,_style=\': 1px; height:\' + str(altcel) + \'px; margin: 0 auto\'), )\n\n    for l in xrange(1,nmlinhas):\n        \n        strtd = criacolunas(largcel, altcel, l, strchart1, strchart2, nmcolunas)\n\n        trlinha = trlinha + (DIV(strtd,_style=\': 1px; height:\' + str(altcel) + \'px; margin: 0 auto\'), )\n    \n    tabela = DIV(trlinha)\n\n    html = HTML(\n            HEAD(\n                META(_charset=\'utf-8\'),\n                TITLE("graficos"),\n                META(_name=\'application-name\',_content=\'\'),\n                META(_name=\'google-site-verification\',_content=\'\'),\n                META(_name=\'viewport\',_content=\'width=device-width, initial-scale=1.0, user-scalable=yes\'),\n            SCRIPT(_src=\'/graficos/static/js/jquery.min.js\'),\n            tabela,\n            SCRIPT(_language=\'javascript\', _type=\'text/javascript\')\n            ), \n            BODY(SCRIPT(_src=\'/graficos/static/js/highcharts.js\'), SCRIPT(_src=\'/graficos/static/js/highcharts-more.js\'),_bgcolor=\'FFFFFF\'),\n            DIV(_id=\'container00\', _style=\'width:2px; height: 1px; margin: 1 auto\'),\n             _class=\'no-js\')\n            \n    return html\n\n\n\n\ndef criacolunas(largcel, altcel, nmlinha, strchart1, strchart2, nmcolunas):\n\n    # primeira coluna da tabela\n    colunas = (DIV(SCRIPT(XML(strchart1),_type=\'text/javascript\'),\n                _id=\'container\' + str(nmlinha) + \'0\',_style=\'width:\' + str(largcel) + \'px; height: \' + str(altcel) + \'px; margin: 0 auto\'), )\n\n    for c in xrange(1,nmcolunas):\n\n        # adiciona colunas a linha at\xc3\xa9 a quantidade selecionada\n\n        colunas =  colunas + (DIV(SCRIPT(XML(strchart2),_type=\'text/javascript\'),\n                              _id=\'container\' + str(nmlinha) + str(c),_style=\'width:\' + str(largcel) + \'px; height: \' + str(altcel) + \'px; margin: 0 auto\'), )\n\n    return colunas\n\n\nresponse._vars=response._caller(index)\n'
p7
sS'snapshot'
p8
(dp9
S'exception'
p10
(dp11
S'__hash__'
p12
S"<method-wrapper '__hash__' of exceptions.NameError object>"
p13
sS'__setattr__'
p14
S"<method-wrapper '__setattr__' of exceptions.NameError object>"
p15
sS'__reduce_ex__'
p16
S'<built-in method __reduce_ex__ of exceptions.NameError object>'
p17
sS'__getslice__'
p18
S"<method-wrapper '__getslice__' of exceptions.NameError object>"
p19
sS'__getitem__'
p20
S"<method-wrapper '__getitem__' of exceptions.NameError object>"
p21
sS'__setstate__'
p22
S'<built-in method __setstate__ of exceptions.NameError object>'
p23
sS'__reduce__'
p24
S'<built-in method __reduce__ of exceptions.NameError object>'
p25
sS'__str__'
p26
S"<method-wrapper '__str__' of exceptions.NameError object>"
p27
sS'__format__'
p28
S'<built-in method __format__ of exceptions.NameError object>'
p29
sS'__getattribute__'
p30
S"<method-wrapper '__getattribute__' of exceptions.NameError object>"
p31
sS'__class__'
p32
S"<type 'exceptions.NameError'>"
p33
sS'__unicode__'
p34
S'<built-in method __unicode__ of exceptions.NameError object>'
p35
sS'__delattr__'
p36
S"<method-wrapper '__delattr__' of exceptions.NameError object>"
p37
sS'__subclasshook__'
p38
S'<built-in method __subclasshook__ of type object>'
p39
sS'__repr__'
p40
S"<method-wrapper '__repr__' of exceptions.NameError object>"
p41
sS'args'
p42
S'("global name \'chart2\' is not defined",)'
p43
sS'__dict__'
p44
S'{}'
p45
sS'__sizeof__'
p46
S'<built-in method __sizeof__ of exceptions.NameError object>'
p47
sS'__doc__'
p48
S"'Name not found globally.'"
p49
sS'__init__'
p50
S"<method-wrapper '__init__' of exceptions.NameError object>"
p51
sS'__new__'
p52
S'<built-in method __new__ of type object>'
p53
ssS'evalue'
p54
S"global name 'chart2' is not defined"
p55
sS'request'
p56
ccopy_reg
_reconstructor
p57
(cgluon.html
BEAUTIFY
p58
c__builtin__
object
p59
NtRp60
(dp61
S'attributes'
p62
(dp63
sS'components'
p64
(lp65
g57
(cgluon.html
TABLE
p66
g59
NtRp67
(dp68
g62
(dp69
S'level'
p70
I5
ssS'parent'
p71
Nsg64
(lp72
g57
(cgluon.html
TR
p73
g59
NtRp74
(dp75
g62
(dp76
sg71
g67
sg64
(lp77
g57
(cgluon.html
TD
p78
g59
NtRp79
(dp80
g62
(dp81
S'_style'
p82
S'font-weight:bold;vertical-align:top'
p83
ssg71
g74
sg64
(lp84
S'ajax'
p85
asbag57
(g78
g59
NtRp86
(dp87
g62
(dp88
S'_valign'
p89
S'top'
p90
ssg71
g74
sg64
(lp91
S':'
asbag57
(g78
g59
NtRp92
(dp93
g62
(dp94
sg71
g74
sg64
(lp95
g57
(g58
g59
NtRp96
(dp97
g62
(dp98
g70
I5
ssg71
g92
sg64
(lp99
S'False'
p100
asbasbasbag57
(g73
g59
NtRp101
(dp102
g62
(dp103
sg71
g67
sg64
(lp104
g57
(g78
g59
NtRp105
(dp106
g62
(dp107
g82
g83
ssg71
g101
sg64
(lp108
S'application'
p109
asbag57
(g78
g59
NtRp110
(dp111
g62
(dp112
g89
g90
ssg71
g101
sg64
(lp113
S':'
asbag57
(g78
g59
NtRp114
(dp115
g62
(dp116
sg71
g101
sg64
(lp117
g57
(g58
g59
NtRp118
(dp119
g62
(dp120
g70
I5
ssg71
g114
sg64
(lp121
S'Graficos'
p122
asbasbasbag57
(g73
g59
NtRp123
(dp124
g62
(dp125
sg71
g67
sg64
(lp126
g57
(g78
g59
NtRp127
(dp128
g62
(dp129
g82
g83
ssg71
g123
sg64
(lp130
g42
asbag57
(g78
g59
NtRp131
(dp132
g62
(dp133
g89
g90
ssg71
g123
sg64
(lp134
S':'
asbag57
(g78
g59
NtRp135
(dp136
g62
(dp137
sg71
g123
sg64
(lp138
g57
(g58
g59
NtRp139
(dp140
g62
(dp141
g70
I5
ssg71
g135
sg64
(lp142
g57
(g66
g59
NtRp143
(dp144
g62
(dp145
g70
I4
ssg71
Nsg64
(lp146
sbasbasbasbag57
(g73
g59
NtRp147
(dp148
g62
(dp149
sg71
g67
sg64
(lp150
g57
(g78
g59
NtRp151
(dp152
g62
(dp153
g82
g83
ssg71
g147
sg64
(lp154
S'body'
p155
asbag57
(g78
g59
NtRp156
(dp157
g62
(dp158
g89
g90
ssg71
g147
sg64
(lp159
S':'
asbag57
(g78
g59
NtRp160
(dp161
g62
(dp162
sg71
g147
sg64
(lp163
g57
(g58
g59
NtRp164
(dp165
g62
(dp166
g70
I5
ssg71
g160
sg64
(lp167
S'<cStringIO.StringO object at 0x03BCC980>'
p168
asbasbasbag57
(g73
g59
NtRp169
(dp170
g62
(dp171
sg71
g67
sg64
(lp172
g57
(g78
g59
NtRp173
(dp174
g62
(dp175
g82
g83
ssg71
g169
sg64
(lp176
S'client'
p177
asbag57
(g78
g59
NtRp178
(dp179
g62
(dp180
g89
g90
ssg71
g169
sg64
(lp181
S':'
asbag57
(g78
g59
NtRp182
(dp183
g62
(dp184
sg71
g169
sg64
(lp185
g57
(g58
g59
NtRp186
(dp187
g62
(dp188
g70
I5
ssg71
g182
sg64
(lp189
S'127.0.0.1'
p190
asbasbasbag57
(g73
g59
NtRp191
(dp192
g62
(dp193
sg71
g67
sg64
(lp194
g57
(g78
g59
NtRp195
(dp196
g62
(dp197
g82
g83
ssg71
g191
sg64
(lp198
S'controller'
p199
asbag57
(g78
g59
NtRp200
(dp201
g62
(dp202
g89
g90
ssg71
g191
sg64
(lp203
S':'
asbag57
(g78
g59
NtRp204
(dp205
g62
(dp206
sg71
g191
sg64
(lp207
g57
(g58
g59
NtRp208
(dp209
g62
(dp210
g70
I5
ssg71
g204
sg64
(lp211
S'tela'
p212
asbasbasbag57
(g73
g59
NtRp213
(dp214
g62
(dp215
sg71
g67
sg64
(lp216
g57
(g78
g59
NtRp217
(dp218
g62
(dp219
g82
g83
ssg71
g213
sg64
(lp220
S'cookies'
p221
asbag57
(g78
g59
NtRp222
(dp223
g62
(dp224
g89
g90
ssg71
g213
sg64
(lp225
S':'
asbag57
(g78
g59
NtRp226
(dp227
g62
(dp228
sg71
g213
sg64
(lp229
g57
(g58
g59
NtRp230
(dp231
g62
(dp232
g70
I5
ssg71
g226
sg64
(lp233
g57
(g66
g59
NtRp234
(dp235
g62
(dp236
g70
I4
ssg71
Nsg64
(lp237
g57
(g73
g59
NtRp238
(dp239
g62
(dp240
sg71
g234
sg64
(lp241
g57
(g78
g59
NtRp242
(dp243
g62
(dp244
g82
g83
ssg71
g238
sg64
(lp245
S'session_id_graficos'
p246
asbag57
(g78
g59
NtRp247
(dp248
g62
(dp249
g89
g90
ssg71
g238
sg64
(lp250
S':'
asbag57
(g78
g59
NtRp251
(dp252
g62
(dp253
sg71
g238
sg64
(lp254
g57
(g58
g59
NtRp255
(dp256
g62
(dp257
g70
I4
ssg71
g251
sg64
(lp258
g57
(g66
g59
NtRp259
(dp260
g62
(dp261
g70
I3
ssg71
Nsg64
(lp262
g57
(g73
g59
NtRp263
(dp264
g62
(dp265
sg71
g259
sg64
(lp266
g57
(g78
g59
NtRp267
(dp268
g62
(dp269
g82
g83
ssg71
g263
sg64
(lp270
S'comment'
p271
asbag57
(g78
g59
NtRp272
(dp273
g62
(dp274
g89
g90
ssg71
g263
sg64
(lp275
S':'
asbag57
(g78
g59
NtRp276
(dp277
g62
(dp278
sg71
g263
sg64
(lp279
g57
(g58
g59
NtRp280
(dp281
g62
(dp282
g70
I3
ssg71
g276
sg64
(lp283
S''
asbasbasbag57
(g73
g59
NtRp284
(dp285
g62
(dp286
sg71
g259
sg64
(lp287
g57
(g78
g59
NtRp288
(dp289
g62
(dp290
g82
g83
ssg71
g284
sg64
(lp291
S'domain'
p292
asbag57
(g78
g59
NtRp293
(dp294
g62
(dp295
g89
g90
ssg71
g284
sg64
(lp296
S':'
asbag57
(g78
g59
NtRp297
(dp298
g62
(dp299
sg71
g284
sg64
(lp300
g57
(g58
g59
NtRp301
(dp302
g62
(dp303
g70
I3
ssg71
g297
sg64
(lp304
S''
asbasbasbag57
(g73
g59
NtRp305
(dp306
g62
(dp307
sg71
g259
sg64
(lp308
g57
(g78
g59
NtRp309
(dp310
g62
(dp311
g82
g83
ssg71
g305
sg64
(lp312
S'expires'
p313
asbag57
(g78
g59
NtRp314
(dp315
g62
(dp316
g89
g90
ssg71
g305
sg64
(lp317
S':'
asbag57
(g78
g59
NtRp318
(dp319
g62
(dp320
sg71
g305
sg64
(lp321
g57
(g58
g59
NtRp322
(dp323
g62
(dp324
g70
I3
ssg71
g318
sg64
(lp325
S''
asbasbasbag57
(g73
g59
NtRp326
(dp327
g62
(dp328
sg71
g259
sg64
(lp329
g57
(g78
g59
NtRp330
(dp331
g62
(dp332
g82
g83
ssg71
g326
sg64
(lp333
S'httponly'
p334
asbag57
(g78
g59
NtRp335
(dp336
g62
(dp337
g89
g90
ssg71
g326
sg64
(lp338
S':'
asbag57
(g78
g59
NtRp339
(dp340
g62
(dp341
sg71
g326
sg64
(lp342
g57
(g58
g59
NtRp343
(dp344
g62
(dp345
g70
I3
ssg71
g339
sg64
(lp346
S''
asbasbasbag57
(g73
g59
NtRp347
(dp348
g62
(dp349
sg71
g259
sg64
(lp350
g57
(g78
g59
NtRp351
(dp352
g62
(dp353
g82
g83
ssg71
g347
sg64
(lp354
S'max-age'
p355
asbag57
(g78
g59
NtRp356
(dp357
g62
(dp358
g89
g90
ssg71
g347
sg64
(lp359
S':'
asbag57
(g78
g59
NtRp360
(dp361
g62
(dp362
sg71
g347
sg64
(lp363
g57
(g58
g59
NtRp364
(dp365
g62
(dp366
g70
I3
ssg71
g360
sg64
(lp367
S''
asbasbasbag57
(g73
g59
NtRp368
(dp369
g62
(dp370
sg71
g259
sg64
(lp371
g57
(g78
g59
NtRp372
(dp373
g62
(dp374
g82
g83
ssg71
g368
sg64
(lp375
S'path'
p376
asbag57
(g78
g59
NtRp377
(dp378
g62
(dp379
g89
g90
ssg71
g368
sg64
(lp380
S':'
asbag57
(g78
g59
NtRp381
(dp382
g62
(dp383
sg71
g368
sg64
(lp384
g57
(g58
g59
NtRp385
(dp386
g62
(dp387
g70
I3
ssg71
g381
sg64
(lp388
S''
asbasbasbag57
(g73
g59
NtRp389
(dp390
g62
(dp391
sg71
g259
sg64
(lp392
g57
(g78
g59
NtRp393
(dp394
g62
(dp395
g82
g83
ssg71
g389
sg64
(lp396
S'secure'
p397
asbag57
(g78
g59
NtRp398
(dp399
g62
(dp400
g89
g90
ssg71
g389
sg64
(lp401
S':'
asbag57
(g78
g59
NtRp402
(dp403
g62
(dp404
sg71
g389
sg64
(lp405
g57
(g58
g59
NtRp406
(dp407
g62
(dp408
g70
I3
ssg71
g402
sg64
(lp409
S''
asbasbasbag57
(g73
g59
NtRp410
(dp411
g62
(dp412
sg71
g259
sg64
(lp413
g57
(g78
g59
NtRp414
(dp415
g62
(dp416
g82
g83
ssg71
g410
sg64
(lp417
S'version'
p418
asbag57
(g78
g59
NtRp419
(dp420
g62
(dp421
g89
g90
ssg71
g410
sg64
(lp422
S':'
asbag57
(g78
g59
NtRp423
(dp424
g62
(dp425
sg71
g410
sg64
(lp426
g57
(g58
g59
NtRp427
(dp428
g62
(dp429
g70
I3
ssg71
g423
sg64
(lp430
S''
asbasbasbasbasbasbasbasbasbasbasbag57
(g73
g59
NtRp431
(dp432
g62
(dp433
sg71
g67
sg64
(lp434
g57
(g78
g59
NtRp435
(dp436
g62
(dp437
g82
g83
ssg71
g431
sg64
(lp438
S'env'
p439
asbag57
(g78
g59
NtRp440
(dp441
g62
(dp442
g89
g90
ssg71
g431
sg64
(lp443
S':'
asbag57
(g78
g59
NtRp444
(dp445
g62
(dp446
sg71
g431
sg64
(lp447
g57
(g58
g59
NtRp448
(dp449
g62
(dp450
g70
I5
ssg71
g444
sg64
(lp451
g57
(g66
g59
NtRp452
(dp453
g62
(dp454
g70
I4
ssg71
Nsg64
(lp455
g57
(g73
g59
NtRp456
(dp457
g62
(dp458
sg71
g452
sg64
(lp459
g57
(g78
g59
NtRp460
(dp461
g62
(dp462
g82
g83
ssg71
g456
sg64
(lp463
S'app_folders'
p464
asbag57
(g78
g59
NtRp465
(dp466
g62
(dp467
g89
g90
ssg71
g456
sg64
(lp468
S':'
asbag57
(g78
g59
NtRp469
(dp470
g62
(dp471
sg71
g456
sg64
(lp472
g57
(g58
g59
NtRp473
(dp474
g62
(dp475
g70
I4
ssg71
g469
sg64
(lp476
S"set(['C:\\\\Python27\\\\web2py\\\\applications\\\\Graficos\\\\'])"
p477
asbasbasbag57
(g73
g59
NtRp478
(dp479
g62
(dp480
sg71
g452
sg64
(lp481
g57
(g78
g59
NtRp482
(dp483
g62
(dp484
g82
g83
ssg71
g478
sg64
(lp485
S'applications_parent'
p486
asbag57
(g78
g59
NtRp487
(dp488
g62
(dp489
g89
g90
ssg71
g478
sg64
(lp490
S':'
asbag57
(g78
g59
NtRp491
(dp492
g62
(dp493
sg71
g478
sg64
(lp494
g57
(g58
g59
NtRp495
(dp496
g62
(dp497
g70
I4
ssg71
g491
sg64
(lp498
S'C:\\Python27\\web2py'
p499
asbasbasbag57
(g73
g59
NtRp500
(dp501
g62
(dp502
sg71
g452
sg64
(lp503
g57
(g78
g59
NtRp504
(dp505
g62
(dp506
g82
g83
ssg71
g500
sg64
(lp507
S'cmd_args'
p508
asbag57
(g78
g59
NtRp509
(dp510
g62
(dp511
g89
g90
ssg71
g500
sg64
(lp512
S':'
asbag57
(g78
g59
NtRp513
(dp514
g62
(dp515
sg71
g500
sg64
(lp516
g57
(g58
g59
NtRp517
(dp518
g62
(dp519
g70
I4
ssg71
g513
sg64
(lp520
g57
(g66
g59
NtRp521
(dp522
g62
(dp523
g70
I3
ssg71
Nsg64
(lp524
sbasbasbasbag57
(g73
g59
NtRp525
(dp526
g62
(dp527
sg71
g452
sg64
(lp528
g57
(g78
g59
NtRp529
(dp530
g62
(dp531
g82
g83
ssg71
g525
sg64
(lp532
S'cmd_options'
p533
asbag57
(g78
g59
NtRp534
(dp535
g62
(dp536
g89
g90
ssg71
g525
sg64
(lp537
S':'
asbag57
(g78
g59
NtRp538
(dp539
g62
(dp540
sg71
g525
sg64
(lp541
g57
(g58
g59
NtRp542
(dp543
g62
(dp544
g70
I4
ssg71
g538
sg64
(lp545
S"<Values at 0x3a5ee18: {'verbose': False, 'ip': '127.0.0.1', 'shutdown_timeout': 5, 'taskbar': False, 'nocron': False, 'pid_filename': 'httpserver.pid', 'maxthreads': None, 'softcron': False, 'server_name': 'VSWKS071', 'bpython': False, 'nogui': False, 'port': 8000, 'extcron': False, 'debuglevel': 30, 'test': None, 'folder': 'C:\\\\Python27\\\\web2py', 'config': '', 'import_models': False, 'winservice': '', 'shell': None, 'run': '', 'log_filename': 'httpserver.log', 'args': [''], 'socket_timeout': 5, 'ssl_ca_certificate': None, 'scheduler': None, 'profiler_filename': None, 'ssl_private_key': '', 'password': '123', 'request_queue_size': 5, 'ssl_certificate': '', 'cronjob': False, 'numthreads': None, 'quiet': False, 'interfaces': None, 'minthreads': None, 'timeout': 10, 'plain': False, 'nobanner': False}>"
p546
asbasbasbag57
(g73
g59
NtRp547
(dp548
g62
(dp549
sg71
g452
sg64
(lp550
g57
(g78
g59
NtRp551
(dp552
g62
(dp553
g82
g83
ssg71
g547
sg64
(lp554
S'db_sessions'
p555
asbag57
(g78
g59
NtRp556
(dp557
g62
(dp558
g89
g90
ssg71
g547
sg64
(lp559
S':'
asbag57
(g78
g59
NtRp560
(dp561
g62
(dp562
sg71
g547
sg64
(lp563
g57
(g58
g59
NtRp564
(dp565
g62
(dp566
g70
I4
ssg71
g560
sg64
(lp567
S'set([])'
p568
asbasbasbag57
(g73
g59
NtRp569
(dp570
g62
(dp571
sg71
g452
sg64
(lp572
g57
(g78
g59
NtRp573
(dp574
g62
(dp575
g82
g83
ssg71
g569
sg64
(lp576
S'debugging'
p577
asbag57
(g78
g59
NtRp578
(dp579
g62
(dp580
g89
g90
ssg71
g569
sg64
(lp581
S':'
asbag57
(g78
g59
NtRp582
(dp583
g62
(dp584
sg71
g569
sg64
(lp585
g57
(g58
g59
NtRp586
(dp587
g62
(dp588
g70
I4
ssg71
g582
sg64
(lp589
g100
asbasbasbag57
(g73
g59
NtRp590
(dp591
g62
(dp592
sg71
g452
sg64
(lp593
g57
(g78
g59
NtRp594
(dp595
g62
(dp596
g82
g83
ssg71
g590
sg64
(lp597
S'gluon_parent'
p598
asbag57
(g78
g59
NtRp599
(dp600
g62
(dp601
g89
g90
ssg71
g590
sg64
(lp602
S':'
asbag57
(g78
g59
NtRp603
(dp604
g62
(dp605
sg71
g590
sg64
(lp606
g57
(g58
g59
NtRp607
(dp608
g62
(dp609
g70
I4
ssg71
g603
sg64
(lp610
S'C:\\Python27\\web2py'
p611
asbasbasbag57
(g73
g59
NtRp612
(dp613
g62
(dp614
sg71
g452
sg64
(lp615
g57
(g78
g59
NtRp616
(dp617
g62
(dp618
g82
g83
ssg71
g612
sg64
(lp619
S'http_accept'
p620
asbag57
(g78
g59
NtRp621
(dp622
g62
(dp623
g89
g90
ssg71
g612
sg64
(lp624
S':'
asbag57
(g78
g59
NtRp625
(dp626
g62
(dp627
sg71
g612
sg64
(lp628
g57
(g58
g59
NtRp629
(dp630
g62
(dp631
g70
I4
ssg71
g625
sg64
(lp632
S'text/html,application/xhtml+xml,application/xml;q=0.9,*/*;q=0.8'
p633
asbasbasbag57
(g73
g59
NtRp634
(dp635
g62
(dp636
sg71
g452
sg64
(lp637
g57
(g78
g59
NtRp638
(dp639
g62
(dp640
g82
g83
ssg71
g634
sg64
(lp641
S'http_accept_encoding'
p642
asbag57
(g78
g59
NtRp643
(dp644
g62
(dp645
g89
g90
ssg71
g634
sg64
(lp646
S':'
asbag57
(g78
g59
NtRp647
(dp648
g62
(dp649
sg71
g634
sg64
(lp650
g57
(g58
g59
NtRp651
(dp652
g62
(dp653
g70
I4
ssg71
g647
sg64
(lp654
S'gzip, deflate'
p655
asbasbasbag57
(g73
g59
NtRp656
(dp657
g62
(dp658
sg71
g452
sg64
(lp659
g57
(g78
g59
NtRp660
(dp661
g62
(dp662
g82
g83
ssg71
g656
sg64
(lp663
S'http_accept_language'
p664
asbag57
(g78
g59
NtRp665
(dp666
g62
(dp667
g89
g90
ssg71
g656
sg64
(lp668
S':'
asbag57
(g78
g59
NtRp669
(dp670
g62
(dp671
sg71
g656
sg64
(lp672
g57
(g58
g59
NtRp673
(dp674
g62
(dp675
g70
I4
ssg71
g669
sg64
(lp676
S'pt-BR,pt;q=0.8,en-US;q=0.5,en;q=0.3'
p677
asbasbasbag57
(g73
g59
NtRp678
(dp679
g62
(dp680
sg71
g452
sg64
(lp681
g57
(g78
g59
NtRp682
(dp683
g62
(dp684
g82
g83
ssg71
g678
sg64
(lp685
S'http_connection'
p686
asbag57
(g78
g59
NtRp687
(dp688
g62
(dp689
g89
g90
ssg71
g678
sg64
(lp690
S':'
asbag57
(g78
g59
NtRp691
(dp692
g62
(dp693
sg71
g678
sg64
(lp694
g57
(g58
g59
NtRp695
(dp696
g62
(dp697
g70
I4
ssg71
g691
sg64
(lp698
S'keep-alive'
p699
asbasbasbag57
(g73
g59
NtRp700
(dp701
g62
(dp702
sg71
g452
sg64
(lp703
g57
(g78
g59
NtRp704
(dp705
g62
(dp706
g82
g83
ssg71
g700
sg64
(lp707
S'http_cookie'
p708
asbag57
(g78
g59
NtRp709
(dp710
g62
(dp711
g89
g90
ssg71
g700
sg64
(lp712
S':'
asbag57
(g78
g59
NtRp713
(dp714
g62
(dp715
sg71
g700
sg64
(lp716
g57
(g58
g59
NtRp717
(dp718
g62
(dp719
g70
I4
ssg71
g713
sg64
(lp720
S'session_id_graficos=127.0.0.1-ed848965-0c4e-4453-85af-f09f81eeada7'
p721
asbasbasbag57
(g73
g59
NtRp722
(dp723
g62
(dp724
sg71
g452
sg64
(lp725
g57
(g78
g59
NtRp726
(dp727
g62
(dp728
g82
g83
ssg71
g722
sg64
(lp729
S'http_host'
p730
asbag57
(g78
g59
NtRp731
(dp732
g62
(dp733
g89
g90
ssg71
g722
sg64
(lp734
S':'
asbag57
(g78
g59
NtRp735
(dp736
g62
(dp737
sg71
g722
sg64
(lp738
g57
(g58
g59
NtRp739
(dp740
g62
(dp741
g70
I4
ssg71
g735
sg64
(lp742
S'127.0.0.1:8000'
p743
asbasbasbag57
(g73
g59
NtRp744
(dp745
g62
(dp746
sg71
g452
sg64
(lp747
g57
(g78
g59
NtRp748
(dp749
g62
(dp750
g82
g83
ssg71
g744
sg64
(lp751
S'http_user_agent'
p752
asbag57
(g78
g59
NtRp753
(dp754
g62
(dp755
g89
g90
ssg71
g744
sg64
(lp756
S':'
asbag57
(g78
g59
NtRp757
(dp758
g62
(dp759
sg71
g744
sg64
(lp760
g57
(g58
g59
NtRp761
(dp762
g62
(dp763
g70
I4
ssg71
g757
sg64
(lp764
S'Mozilla/5.0 (Windows NT 6.1; WOW64; rv:17.0) Gecko/20100101 Firefox/17.0'
p765
asbasbasbag57
(g73
g59
NtRp766
(dp767
g62
(dp768
sg71
g452
sg64
(lp769
g57
(g78
g59
NtRp770
(dp771
g62
(dp772
g82
g83
ssg71
g766
sg64
(lp773
S'is_jython'
p774
asbag57
(g78
g59
NtRp775
(dp776
g62
(dp777
g89
g90
ssg71
g766
sg64
(lp778
S':'
asbag57
(g78
g59
NtRp779
(dp780
g62
(dp781
sg71
g766
sg64
(lp782
g57
(g58
g59
NtRp783
(dp784
g62
(dp785
g70
I4
ssg71
g779
sg64
(lp786
g100
asbasbasbag57
(g73
g59
NtRp787
(dp788
g62
(dp789
sg71
g452
sg64
(lp790
g57
(g78
g59
NtRp791
(dp792
g62
(dp793
g82
g83
ssg71
g787
sg64
(lp794
S'is_pypy'
p795
asbag57
(g78
g59
NtRp796
(dp797
g62
(dp798
g89
g90
ssg71
g787
sg64
(lp799
S':'
asbag57
(g78
g59
NtRp800
(dp801
g62
(dp802
sg71
g787
sg64
(lp803
g57
(g58
g59
NtRp804
(dp805
g62
(dp806
g70
I4
ssg71
g800
sg64
(lp807
g100
asbasbasbag57
(g73
g59
NtRp808
(dp809
g62
(dp810
sg71
g452
sg64
(lp811
g57
(g78
g59
NtRp812
(dp813
g62
(dp814
g82
g83
ssg71
g808
sg64
(lp815
S'path_info'
p816
asbag57
(g78
g59
NtRp817
(dp818
g62
(dp819
g89
g90
ssg71
g808
sg64
(lp820
S':'
asbag57
(g78
g59
NtRp821
(dp822
g62
(dp823
sg71
g808
sg64
(lp824
g57
(g58
g59
NtRp825
(dp826
g62
(dp827
g70
I4
ssg71
g821
sg64
(lp828
S'/Graficos/tela'
p829
asbasbasbag57
(g73
g59
NtRp830
(dp831
g62
(dp832
sg71
g452
sg64
(lp833
g57
(g78
g59
NtRp834
(dp835
g62
(dp836
g82
g83
ssg71
g830
sg64
(lp837
S'query_string'
p838
asbag57
(g78
g59
NtRp839
(dp840
g62
(dp841
g89
g90
ssg71
g830
sg64
(lp842
S':'
asbag57
(g78
g59
NtRp843
(dp844
g62
(dp845
sg71
g830
sg64
(lp846
g57
(g58
g59
NtRp847
(dp848
g62
(dp849
g70
I4
ssg71
g843
sg64
(lp850
S''
asbasbasbag57
(g73
g59
NtRp851
(dp852
g62
(dp853
sg71
g452
sg64
(lp854
g57
(g78
g59
NtRp855
(dp856
g62
(dp857
g82
g83
ssg71
g851
sg64
(lp858
S'remote_addr'
p859
asbag57
(g78
g59
NtRp860
(dp861
g62
(dp862
g89
g90
ssg71
g851
sg64
(lp863
S':'
asbag57
(g78
g59
NtRp864
(dp865
g62
(dp866
sg71
g851
sg64
(lp867
g57
(g58
g59
NtRp868
(dp869
g62
(dp870
g70
I4
ssg71
g864
sg64
(lp871
g190
asbasbasbag57
(g73
g59
NtRp872
(dp873
g62
(dp874
sg71
g452
sg64
(lp875
g57
(g78
g59
NtRp876
(dp877
g62
(dp878
g82
g83
ssg71
g872
sg64
(lp879
S'remote_port'
p880
asbag57
(g78
g59
NtRp881
(dp882
g62
(dp883
g89
g90
ssg71
g872
sg64
(lp884
S':'
asbag57
(g78
g59
NtRp885
(dp886
g62
(dp887
sg71
g872
sg64
(lp888
g57
(g58
g59
NtRp889
(dp890
g62
(dp891
g70
I4
ssg71
g885
sg64
(lp892
S'51735'
p893
asbasbasbag57
(g73
g59
NtRp894
(dp895
g62
(dp896
sg71
g452
sg64
(lp897
g57
(g78
g59
NtRp898
(dp899
g62
(dp900
g82
g83
ssg71
g894
sg64
(lp901
S'request_method'
p902
asbag57
(g78
g59
NtRp903
(dp904
g62
(dp905
g89
g90
ssg71
g894
sg64
(lp906
S':'
asbag57
(g78
g59
NtRp907
(dp908
g62
(dp909
sg71
g894
sg64
(lp910
g57
(g58
g59
NtRp911
(dp912
g62
(dp913
g70
I4
ssg71
g907
sg64
(lp914
S'GET'
p915
asbasbasbag57
(g73
g59
NtRp916
(dp917
g62
(dp918
sg71
g452
sg64
(lp919
g57
(g78
g59
NtRp920
(dp921
g62
(dp922
g82
g83
ssg71
g916
sg64
(lp923
S'request_uri'
p924
asbag57
(g78
g59
NtRp925
(dp926
g62
(dp927
g89
g90
ssg71
g916
sg64
(lp928
S':'
asbag57
(g78
g59
NtRp929
(dp930
g62
(dp931
sg71
g916
sg64
(lp932
g57
(g58
g59
NtRp933
(dp934
g62
(dp935
g70
I4
ssg71
g929
sg64
(lp936
g829
asbasbasbag57
(g73
g59
NtRp937
(dp938
g62
(dp939
sg71
g452
sg64
(lp940
g57
(g78
g59
NtRp941
(dp942
g62
(dp943
g82
g83
ssg71
g937
sg64
(lp944
S'script_name'
p945
asbag57
(g78
g59
NtRp946
(dp947
g62
(dp948
g89
g90
ssg71
g937
sg64
(lp949
S':'
asbag57
(g78
g59
NtRp950
(dp951
g62
(dp952
sg71
g937
sg64
(lp953
g57
(g58
g59
NtRp954
(dp955
g62
(dp956
g70
I4
ssg71
g950
sg64
(lp957
S''
asbasbasbag57
(g73
g59
NtRp958
(dp959
g62
(dp960
sg71
g452
sg64
(lp961
g57
(g78
g59
NtRp962
(dp963
g62
(dp964
g82
g83
ssg71
g958
sg64
(lp965
S'server_name'
p966
asbag57
(g78
g59
NtRp967
(dp968
g62
(dp969
g89
g90
ssg71
g958
sg64
(lp970
S':'
asbag57
(g78
g59
NtRp971
(dp972
g62
(dp973
sg71
g958
sg64
(lp974
g57
(g58
g59
NtRp975
(dp976
g62
(dp977
g70
I4
ssg71
g971
sg64
(lp978
S'VSWKS071'
p979
asbasbasbag57
(g73
g59
NtRp980
(dp981
g62
(dp982
sg71
g452
sg64
(lp983
g57
(g78
g59
NtRp984
(dp985
g62
(dp986
g82
g83
ssg71
g980
sg64
(lp987
S'server_port'
p988
asbag57
(g78
g59
NtRp989
(dp990
g62
(dp991
g89
g90
ssg71
g980
sg64
(lp992
S':'
asbag57
(g78
g59
NtRp993
(dp994
g62
(dp995
sg71
g980
sg64
(lp996
g57
(g58
g59
NtRp997
(dp998
g62
(dp999
g70
I4
ssg71
g993
sg64
(lp1000
S'8000'
p1001
asbasbasbag57
(g73
g59
NtRp1002
(dp1003
g62
(dp1004
sg71
g452
sg64
(lp1005
g57
(g78
g59
NtRp1006
(dp1007
g62
(dp1008
g82
g83
ssg71
g1002
sg64
(lp1009
S'server_protocol'
p1010
asbag57
(g78
g59
NtRp1011
(dp1012
g62
(dp1013
g89
g90
ssg71
g1002
sg64
(lp1014
S':'
asbag57
(g78
g59
NtRp1015
(dp1016
g62
(dp1017
sg71
g1002
sg64
(lp1018
g57
(g58
g59
NtRp1019
(dp1020
g62
(dp1021
g70
I4
ssg71
g1015
sg64
(lp1022
S'HTTP/1.1'
p1023
asbasbasbag57
(g73
g59
NtRp1024
(dp1025
g62
(dp1026
sg71
g452
sg64
(lp1027
g57
(g78
g59
NtRp1028
(dp1029
g62
(dp1030
g82
g83
ssg71
g1024
sg64
(lp1031
S'server_software'
p1032
asbag57
(g78
g59
NtRp1033
(dp1034
g62
(dp1035
g89
g90
ssg71
g1024
sg64
(lp1036
S':'
asbag57
(g78
g59
NtRp1037
(dp1038
g62
(dp1039
sg71
g1024
sg64
(lp1040
g57
(g58
g59
NtRp1041
(dp1042
g62
(dp1043
g70
I4
ssg71
g1037
sg64
(lp1044
S'Rocket 1.2.4'
p1045
asbasbasbag57
(g73
g59
NtRp1046
(dp1047
g62
(dp1048
sg71
g452
sg64
(lp1049
g57
(g78
g59
NtRp1050
(dp1051
g62
(dp1052
g82
g83
ssg71
g1046
sg64
(lp1053
S'web2py_crontype'
p1054
asbag57
(g78
g59
NtRp1055
(dp1056
g62
(dp1057
g89
g90
ssg71
g1046
sg64
(lp1058
S':'
asbag57
(g78
g59
NtRp1059
(dp1060
g62
(dp1061
sg71
g1046
sg64
(lp1062
g57
(g58
g59
NtRp1063
(dp1064
g62
(dp1065
g70
I4
ssg71
g1059
sg64
(lp1066
S'hard'
p1067
asbasbasbag57
(g73
g59
NtRp1068
(dp1069
g62
(dp1070
sg71
g452
sg64
(lp1071
g57
(g78
g59
NtRp1072
(dp1073
g62
(dp1074
g82
g83
ssg71
g1068
sg64
(lp1075
S'web2py_original_uri'
p1076
asbag57
(g78
g59
NtRp1077
(dp1078
g62
(dp1079
g89
g90
ssg71
g1068
sg64
(lp1080
S':'
asbag57
(g78
g59
NtRp1081
(dp1082
g62
(dp1083
sg71
g1068
sg64
(lp1084
g57
(g58
g59
NtRp1085
(dp1086
g62
(dp1087
g70
I4
ssg71
g1081
sg64
(lp1088
g829
asbasbasbag57
(g73
g59
NtRp1089
(dp1090
g62
(dp1091
sg71
g452
sg64
(lp1092
g57
(g78
g59
NtRp1093
(dp1094
g62
(dp1095
g82
g83
ssg71
g1089
sg64
(lp1096
S'web2py_path'
p1097
asbag57
(g78
g59
NtRp1098
(dp1099
g62
(dp1100
g89
g90
ssg71
g1089
sg64
(lp1101
S':'
asbag57
(g78
g59
NtRp1102
(dp1103
g62
(dp1104
sg71
g1089
sg64
(lp1105
g57
(g58
g59
NtRp1106
(dp1107
g62
(dp1108
g70
I4
ssg71
g1102
sg64
(lp1109
g499
asbasbasbag57
(g73
g59
NtRp1110
(dp1111
g62
(dp1112
sg71
g452
sg64
(lp1113
g57
(g78
g59
NtRp1114
(dp1115
g62
(dp1116
g82
g83
ssg71
g1110
sg64
(lp1117
S'web2py_version'
p1118
asbag57
(g78
g59
NtRp1119
(dp1120
g62
(dp1121
g89
g90
ssg71
g1110
sg64
(lp1122
S':'
asbag57
(g78
g59
NtRp1123
(dp1124
g62
(dp1125
sg71
g1110
sg64
(lp1126
g57
(g58
g59
NtRp1127
(dp1128
g62
(dp1129
g70
I4
ssg71
g1123
sg64
(lp1130
g57
(g66
g59
NtRp1131
(dp1132
g62
(dp1133
g70
I3
ssg71
Nsg64
(lp1134
g57
(g73
g59
NtRp1135
(dp1136
g62
(dp1137
sg71
g1131
sg64
(lp1138
g57
(g78
g59
NtRp1139
(dp1140
g62
(dp1141
sg71
g1135
sg64
(lp1142
g57
(g58
g59
NtRp1143
(dp1144
g62
(dp1145
g70
I3
ssg71
g1139
sg64
(lp1146
S'1'
asbasbasbag57
(g73
g59
NtRp1147
(dp1148
g62
(dp1149
sg71
g1131
sg64
(lp1150
g57
(g78
g59
NtRp1151
(dp1152
g62
(dp1153
sg71
g1147
sg64
(lp1154
g57
(g58
g59
NtRp1155
(dp1156
g62
(dp1157
g70
I3
ssg71
g1151
sg64
(lp1158
S'99'
p1159
asbasbasbag57
(g73
g59
NtRp1160
(dp1161
g62
(dp1162
sg71
g1131
sg64
(lp1163
g57
(g78
g59
NtRp1164
(dp1165
g62
(dp1166
sg71
g1160
sg64
(lp1167
g57
(g58
g59
NtRp1168
(dp1169
g62
(dp1170
g70
I3
ssg71
g1164
sg64
(lp1171
S'7'
asbasbasbag57
(g73
g59
NtRp1172
(dp1173
g62
(dp1174
sg71
g1131
sg64
(lp1175
g57
(g78
g59
NtRp1176
(dp1177
g62
(dp1178
sg71
g1172
sg64
(lp1179
g57
(g58
g59
NtRp1180
(dp1181
g62
(dp1182
g70
I3
ssg71
g1176
sg64
(lp1183
S'datetime.datetime(2012, 3, 4, 22, 12, 8)'
p1184
asbasbasbag57
(g73
g59
NtRp1185
(dp1186
g62
(dp1187
sg71
g1131
sg64
(lp1188
g57
(g78
g59
NtRp1189
(dp1190
g62
(dp1191
sg71
g1185
sg64
(lp1192
g57
(g58
g59
NtRp1193
(dp1194
g62
(dp1195
g70
I3
ssg71
g1189
sg64
(lp1196
S'stable'
p1197
asbasbasbasbasbasbasbag57
(g73
g59
NtRp1198
(dp1199
g62
(dp1200
sg71
g452
sg64
(lp1201
g57
(g78
g59
NtRp1202
(dp1203
g62
(dp1204
g82
g83
ssg71
g1198
sg64
(lp1205
S'wsgi_errors'
p1206
asbag57
(g78
g59
NtRp1207
(dp1208
g62
(dp1209
g89
g90
ssg71
g1198
sg64
(lp1210
S':'
asbag57
(g78
g59
NtRp1211
(dp1212
g62
(dp1213
sg71
g1198
sg64
(lp1214
g57
(g58
g59
NtRp1215
(dp1216
g62
(dp1217
g70
I4
ssg71
g1211
sg64
(lp1218
S"<open file '<stderr>', mode 'w' at 0x01E450D0>"
p1219
asbasbasbag57
(g73
g59
NtRp1220
(dp1221
g62
(dp1222
sg71
g452
sg64
(lp1223
g57
(g78
g59
NtRp1224
(dp1225
g62
(dp1226
g82
g83
ssg71
g1220
sg64
(lp1227
S'wsgi_file_wrapper'
p1228
asbag57
(g78
g59
NtRp1229
(dp1230
g62
(dp1231
g89
g90
ssg71
g1220
sg64
(lp1232
S':'
asbag57
(g78
g59
NtRp1233
(dp1234
g62
(dp1235
sg71
g1220
sg64
(lp1236
g57
(g58
g59
NtRp1237
(dp1238
g62
(dp1239
g70
I4
ssg71
g1233
sg64
(lp1240
S'<class wsgiref.util.FileWrapper at 0x03972768>'
p1241
asbasbasbag57
(g73
g59
NtRp1242
(dp1243
g62
(dp1244
sg71
g452
sg64
(lp1245
g57
(g78
g59
NtRp1246
(dp1247
g62
(dp1248
g82
g83
ssg71
g1242
sg64
(lp1249
S'wsgi_input'
p1250
asbag57
(g78
g59
NtRp1251
(dp1252
g62
(dp1253
g89
g90
ssg71
g1242
sg64
(lp1254
S':'
asbag57
(g78
g59
NtRp1255
(dp1256
g62
(dp1257
sg71
g1242
sg64
(lp1258
g57
(g58
g59
NtRp1259
(dp1260
g62
(dp1261
g70
I4
ssg71
g1255
sg64
(lp1262
S'<socket._fileobject object at 0x03B7FA30>'
p1263
asbasbasbag57
(g73
g59
NtRp1264
(dp1265
g62
(dp1266
sg71
g452
sg64
(lp1267
g57
(g78
g59
NtRp1268
(dp1269
g62
(dp1270
g82
g83
ssg71
g1264
sg64
(lp1271
S'wsgi_multiprocess'
p1272
asbag57
(g78
g59
NtRp1273
(dp1274
g62
(dp1275
g89
g90
ssg71
g1264
sg64
(lp1276
S':'
asbag57
(g78
g59
NtRp1277
(dp1278
g62
(dp1279
sg71
g1264
sg64
(lp1280
g57
(g58
g59
NtRp1281
(dp1282
g62
(dp1283
g70
I4
ssg71
g1277
sg64
(lp1284
g100
asbasbasbag57
(g73
g59
NtRp1285
(dp1286
g62
(dp1287
sg71
g452
sg64
(lp1288
g57
(g78
g59
NtRp1289
(dp1290
g62
(dp1291
g82
g83
ssg71
g1285
sg64
(lp1292
S'wsgi_multithread'
p1293
asbag57
(g78
g59
NtRp1294
(dp1295
g62
(dp1296
g89
g90
ssg71
g1285
sg64
(lp1297
S':'
asbag57
(g78
g59
NtRp1298
(dp1299
g62
(dp1300
sg71
g1285
sg64
(lp1301
g57
(g58
g59
NtRp1302
(dp1303
g62
(dp1304
g70
I4
ssg71
g1298
sg64
(lp1305
S'True'
p1306
asbasbasbag57
(g73
g59
NtRp1307
(dp1308
g62
(dp1309
sg71
g452
sg64
(lp1310
g57
(g78
g59
NtRp1311
(dp1312
g62
(dp1313
g82
g83
ssg71
g1307
sg64
(lp1314
S'wsgi_run_once'
p1315
asbag57
(g78
g59
NtRp1316
(dp1317
g62
(dp1318
g89
g90
ssg71
g1307
sg64
(lp1319
S':'
asbag57
(g78
g59
NtRp1320
(dp1321
g62
(dp1322
sg71
g1307
sg64
(lp1323
g57
(g58
g59
NtRp1324
(dp1325
g62
(dp1326
g70
I4
ssg71
g1320
sg64
(lp1327
g100
asbasbasbag57
(g73
g59
NtRp1328
(dp1329
g62
(dp1330
sg71
g452
sg64
(lp1331
g57
(g78
g59
NtRp1332
(dp1333
g62
(dp1334
g82
g83
ssg71
g1328
sg64
(lp1335
S'wsgi_url_scheme'
p1336
asbag57
(g78
g59
NtRp1337
(dp1338
g62
(dp1339
g89
g90
ssg71
g1328
sg64
(lp1340
S':'
asbag57
(g78
g59
NtRp1341
(dp1342
g62
(dp1343
sg71
g1328
sg64
(lp1344
g57
(g58
g59
NtRp1345
(dp1346
g62
(dp1347
g70
I4
ssg71
g1341
sg64
(lp1348
S'http'
p1349
asbasbasbag57
(g73
g59
NtRp1350
(dp1351
g62
(dp1352
sg71
g452
sg64
(lp1353
g57
(g78
g59
NtRp1354
(dp1355
g62
(dp1356
g82
g83
ssg71
g1350
sg64
(lp1357
S'wsgi_version'
p1358
asbag57
(g78
g59
NtRp1359
(dp1360
g62
(dp1361
g89
g90
ssg71
g1350
sg64
(lp1362
S':'
asbag57
(g78
g59
NtRp1363
(dp1364
g62
(dp1365
sg71
g1350
sg64
(lp1366
g57
(g58
g59
NtRp1367
(dp1368
g62
(dp1369
g70
I4
ssg71
g1363
sg64
(lp1370
g57
(g66
g59
NtRp1371
(dp1372
g62
(dp1373
g70
I3
ssg71
Nsg64
(lp1374
g57
(g73
g59
NtRp1375
(dp1376
g62
(dp1377
sg71
g1371
sg64
(lp1378
g57
(g78
g59
NtRp1379
(dp1380
g62
(dp1381
sg71
g1375
sg64
(lp1382
g57
(g58
g59
NtRp1383
(dp1384
g62
(dp1385
g70
I3
ssg71
g1379
sg64
(lp1386
S'1'
asbasbasbag57
(g73
g59
NtRp1387
(dp1388
g62
(dp1389
sg71
g1371
sg64
(lp1390
g57
(g78
g59
NtRp1391
(dp1392
g62
(dp1393
sg71
g1387
sg64
(lp1394
g57
(g58
g59
NtRp1395
(dp1396
g62
(dp1397
g70
I3
ssg71
g1391
sg64
(lp1398
S'0'
asbasbasbasbasbasbasbasbasbasbasbag57
(g73
g59
NtRp1399
(dp1400
g62
(dp1401
sg71
g67
sg64
(lp1402
g57
(g78
g59
NtRp1403
(dp1404
g62
(dp1405
g82
g83
ssg71
g1399
sg64
(lp1406
S'extension'
p1407
asbag57
(g78
g59
NtRp1408
(dp1409
g62
(dp1410
g89
g90
ssg71
g1399
sg64
(lp1411
S':'
asbag57
(g78
g59
NtRp1412
(dp1413
g62
(dp1414
sg71
g1399
sg64
(lp1415
g57
(g58
g59
NtRp1416
(dp1417
g62
(dp1418
g70
I5
ssg71
g1412
sg64
(lp1419
S'html'
p1420
asbasbasbag57
(g73
g59
NtRp1421
(dp1422
g62
(dp1423
sg71
g67
sg64
(lp1424
g57
(g78
g59
NtRp1425
(dp1426
g62
(dp1427
g82
g83
ssg71
g1421
sg64
(lp1428
S'folder'
p1429
asbag57
(g78
g59
NtRp1430
(dp1431
g62
(dp1432
g89
g90
ssg71
g1421
sg64
(lp1433
S':'
asbag57
(g78
g59
NtRp1434
(dp1435
g62
(dp1436
sg71
g1421
sg64
(lp1437
g57
(g58
g59
NtRp1438
(dp1439
g62
(dp1440
g70
I5
ssg71
g1434
sg64
(lp1441
S'C:\\Python27\\web2py\\applications\\Graficos\\'
p1442
asbasbasbag57
(g73
g59
NtRp1443
(dp1444
g62
(dp1445
sg71
g67
sg64
(lp1446
g57
(g78
g59
NtRp1447
(dp1448
g62
(dp1449
g82
g83
ssg71
g1443
sg64
(lp1450
S'function'
p1451
asbag57
(g78
g59
NtRp1452
(dp1453
g62
(dp1454
g89
g90
ssg71
g1443
sg64
(lp1455
S':'
asbag57
(g78
g59
NtRp1456
(dp1457
g62
(dp1458
sg71
g1443
sg64
(lp1459
g57
(g58
g59
NtRp1460
(dp1461
g62
(dp1462
g70
I5
ssg71
g1456
sg64
(lp1463
S'index'
p1464
asbasbasbag57
(g73
g59
NtRp1465
(dp1466
g62
(dp1467
sg71
g67
sg64
(lp1468
g57
(g78
g59
NtRp1469
(dp1470
g62
(dp1471
g82
g83
ssg71
g1465
sg64
(lp1472
S'get_vars'
p1473
asbag57
(g78
g59
NtRp1474
(dp1475
g62
(dp1476
g89
g90
ssg71
g1465
sg64
(lp1477
S':'
asbag57
(g78
g59
NtRp1478
(dp1479
g62
(dp1480
sg71
g1465
sg64
(lp1481
g57
(g58
g59
NtRp1482
(dp1483
g62
(dp1484
g70
I5
ssg71
g1478
sg64
(lp1485
g57
(g66
g59
NtRp1486
(dp1487
g62
(dp1488
g70
I4
ssg71
Nsg64
(lp1489
sbasbasbasbag57
(g73
g59
NtRp1490
(dp1491
g62
(dp1492
sg71
g67
sg64
(lp1493
g57
(g78
g59
NtRp1494
(dp1495
g62
(dp1496
g82
g83
ssg71
g1490
sg64
(lp1497
S'global_settings'
p1498
asbag57
(g78
g59
NtRp1499
(dp1500
g62
(dp1501
g89
g90
ssg71
g1490
sg64
(lp1502
S':'
asbag57
(g78
g59
NtRp1503
(dp1504
g62
(dp1505
sg71
g1490
sg64
(lp1506
g57
(g58
g59
NtRp1507
(dp1508
g62
(dp1509
g70
I5
ssg71
g1503
sg64
(lp1510
g57
(g66
g59
NtRp1511
(dp1512
g62
(dp1513
g70
I4
ssg71
Nsg64
(lp1514
g57
(g73
g59
NtRp1515
(dp1516
g62
(dp1517
sg71
g1511
sg64
(lp1518
g57
(g78
g59
NtRp1519
(dp1520
g62
(dp1521
g82
g83
ssg71
g1515
sg64
(lp1522
g464
asbag57
(g78
g59
NtRp1523
(dp1524
g62
(dp1525
g89
g90
ssg71
g1515
sg64
(lp1526
S':'
asbag57
(g78
g59
NtRp1527
(dp1528
g62
(dp1529
sg71
g1515
sg64
(lp1530
g57
(g58
g59
NtRp1531
(dp1532
g62
(dp1533
g70
I4
ssg71
g1527
sg64
(lp1534
S"set(['C:\\\\Python27\\\\web2py\\\\applications\\\\Graficos\\\\'])"
p1535
asbasbasbag57
(g73
g59
NtRp1536
(dp1537
g62
(dp1538
sg71
g1511
sg64
(lp1539
g57
(g78
g59
NtRp1540
(dp1541
g62
(dp1542
g82
g83
ssg71
g1536
sg64
(lp1543
g486
asbag57
(g78
g59
NtRp1544
(dp1545
g62
(dp1546
g89
g90
ssg71
g1536
sg64
(lp1547
S':'
asbag57
(g78
g59
NtRp1548
(dp1549
g62
(dp1550
sg71
g1536
sg64
(lp1551
g57
(g58
g59
NtRp1552
(dp1553
g62
(dp1554
g70
I4
ssg71
g1548
sg64
(lp1555
g499
asbasbasbag57
(g73
g59
NtRp1556
(dp1557
g62
(dp1558
sg71
g1511
sg64
(lp1559
g57
(g78
g59
NtRp1560
(dp1561
g62
(dp1562
g82
g83
ssg71
g1556
sg64
(lp1563
g508
asbag57
(g78
g59
NtRp1564
(dp1565
g62
(dp1566
g89
g90
ssg71
g1556
sg64
(lp1567
S':'
asbag57
(g78
g59
NtRp1568
(dp1569
g62
(dp1570
sg71
g1556
sg64
(lp1571
g57
(g58
g59
NtRp1572
(dp1573
g62
(dp1574
g70
I4
ssg71
g1568
sg64
(lp1575
g57
(g66
g59
NtRp1576
(dp1577
g62
(dp1578
g70
I3
ssg71
Nsg64
(lp1579
sbasbasbasbag57
(g73
g59
NtRp1580
(dp1581
g62
(dp1582
sg71
g1511
sg64
(lp1583
g57
(g78
g59
NtRp1584
(dp1585
g62
(dp1586
g82
g83
ssg71
g1580
sg64
(lp1587
g533
asbag57
(g78
g59
NtRp1588
(dp1589
g62
(dp1590
g89
g90
ssg71
g1580
sg64
(lp1591
S':'
asbag57
(g78
g59
NtRp1592
(dp1593
g62
(dp1594
sg71
g1580
sg64
(lp1595
g57
(g58
g59
NtRp1596
(dp1597
g62
(dp1598
g70
I4
ssg71
g1592
sg64
(lp1599
S"<Values at 0x3a5ee18: {'verbose': False, 'ip': '127.0.0.1', 'shutdown_timeout': 5, 'taskbar': False, 'nocron': False, 'pid_filename': 'httpserver.pid', 'maxthreads': None, 'softcron': False, 'server_name': 'VSWKS071', 'bpython': False, 'nogui': False, 'port': 8000, 'extcron': False, 'debuglevel': 30, 'test': None, 'folder': 'C:\\\\Python27\\\\web2py', 'config': '', 'import_models': False, 'winservice': '', 'shell': None, 'run': '', 'log_filename': 'httpserver.log', 'args': [''], 'socket_timeout': 5, 'ssl_ca_certificate': None, 'scheduler': None, 'profiler_filename': None, 'ssl_private_key': '', 'password': '123', 'request_queue_size': 5, 'ssl_certificate': '', 'cronjob': False, 'numthreads': None, 'quiet': False, 'interfaces': None, 'minthreads': None, 'timeout': 10, 'plain': False, 'nobanner': False}>"
p1600
asbasbasbag57
(g73
g59
NtRp1601
(dp1602
g62
(dp1603
sg71
g1511
sg64
(lp1604
g57
(g78
g59
NtRp1605
(dp1606
g62
(dp1607
g82
g83
ssg71
g1601
sg64
(lp1608
g555
asbag57
(g78
g59
NtRp1609
(dp1610
g62
(dp1611
g89
g90
ssg71
g1601
sg64
(lp1612
S':'
asbag57
(g78
g59
NtRp1613
(dp1614
g62
(dp1615
sg71
g1601
sg64
(lp1616
g57
(g58
g59
NtRp1617
(dp1618
g62
(dp1619
g70
I4
ssg71
g1613
sg64
(lp1620
S'set([])'
p1621
asbasbasbag57
(g73
g59
NtRp1622
(dp1623
g62
(dp1624
sg71
g1511
sg64
(lp1625
g57
(g78
g59
NtRp1626
(dp1627
g62
(dp1628
g82
g83
ssg71
g1622
sg64
(lp1629
g577
asbag57
(g78
g59
NtRp1630
(dp1631
g62
(dp1632
g89
g90
ssg71
g1622
sg64
(lp1633
S':'
asbag57
(g78
g59
NtRp1634
(dp1635
g62
(dp1636
sg71
g1622
sg64
(lp1637
g57
(g58
g59
NtRp1638
(dp1639
g62
(dp1640
g70
I4
ssg71
g1634
sg64
(lp1641
g100
asbasbasbag57
(g73
g59
NtRp1642
(dp1643
g62
(dp1644
sg71
g1511
sg64
(lp1645
g57
(g78
g59
NtRp1646
(dp1647
g62
(dp1648
g82
g83
ssg71
g1642
sg64
(lp1649
g598
asbag57
(g78
g59
NtRp1650
(dp1651
g62
(dp1652
g89
g90
ssg71
g1642
sg64
(lp1653
S':'
asbag57
(g78
g59
NtRp1654
(dp1655
g62
(dp1656
sg71
g1642
sg64
(lp1657
g57
(g58
g59
NtRp1658
(dp1659
g62
(dp1660
g70
I4
ssg71
g1654
sg64
(lp1661
g611
asbasbasbag57
(g73
g59
NtRp1662
(dp1663
g62
(dp1664
sg71
g1511
sg64
(lp1665
g57
(g78
g59
NtRp1666
(dp1667
g62
(dp1668
g82
g83
ssg71
g1662
sg64
(lp1669
g774
asbag57
(g78
g59
NtRp1670
(dp1671
g62
(dp1672
g89
g90
ssg71
g1662
sg64
(lp1673
S':'
asbag57
(g78
g59
NtRp1674
(dp1675
g62
(dp1676
sg71
g1662
sg64
(lp1677
g57
(g58
g59
NtRp1678
(dp1679
g62
(dp1680
g70
I4
ssg71
g1674
sg64
(lp1681
g100
asbasbasbag57
(g73
g59
NtRp1682
(dp1683
g62
(dp1684
sg71
g1511
sg64
(lp1685
g57
(g78
g59
NtRp1686
(dp1687
g62
(dp1688
g82
g83
ssg71
g1682
sg64
(lp1689
g795
asbag57
(g78
g59
NtRp1690
(dp1691
g62
(dp1692
g89
g90
ssg71
g1682
sg64
(lp1693
S':'
asbag57
(g78
g59
NtRp1694
(dp1695
g62
(dp1696
sg71
g1682
sg64
(lp1697
g57
(g58
g59
NtRp1698
(dp1699
g62
(dp1700
g70
I4
ssg71
g1694
sg64
(lp1701
g100
asbasbasbag57
(g73
g59
NtRp1702
(dp1703
g62
(dp1704
sg71
g1511
sg64
(lp1705
g57
(g78
g59
NtRp1706
(dp1707
g62
(dp1708
g82
g83
ssg71
g1702
sg64
(lp1709
g1054
asbag57
(g78
g59
NtRp1710
(dp1711
g62
(dp1712
g89
g90
ssg71
g1702
sg64
(lp1713
S':'
asbag57
(g78
g59
NtRp1714
(dp1715
g62
(dp1716
sg71
g1702
sg64
(lp1717
g57
(g58
g59
NtRp1718
(dp1719
g62
(dp1720
g70
I4
ssg71
g1714
sg64
(lp1721
g1067
asbasbasbag57
(g73
g59
NtRp1722
(dp1723
g62
(dp1724
sg71
g1511
sg64
(lp1725
g57
(g78
g59
NtRp1726
(dp1727
g62
(dp1728
g82
g83
ssg71
g1722
sg64
(lp1729
g1118
asbag57
(g78
g59
NtRp1730
(dp1731
g62
(dp1732
g89
g90
ssg71
g1722
sg64
(lp1733
S':'
asbag57
(g78
g59
NtRp1734
(dp1735
g62
(dp1736
sg71
g1722
sg64
(lp1737
g57
(g58
g59
NtRp1738
(dp1739
g62
(dp1740
g70
I4
ssg71
g1734
sg64
(lp1741
g57
(g66
g59
NtRp1742
(dp1743
g62
(dp1744
g70
I3
ssg71
Nsg64
(lp1745
g57
(g73
g59
NtRp1746
(dp1747
g62
(dp1748
sg71
g1742
sg64
(lp1749
g57
(g78
g59
NtRp1750
(dp1751
g62
(dp1752
sg71
g1746
sg64
(lp1753
g57
(g58
g59
NtRp1754
(dp1755
g62
(dp1756
g70
I3
ssg71
g1750
sg64
(lp1757
S'1'
asbasbasbag57
(g73
g59
NtRp1758
(dp1759
g62
(dp1760
sg71
g1742
sg64
(lp1761
g57
(g78
g59
NtRp1762
(dp1763
g62
(dp1764
sg71
g1758
sg64
(lp1765
g57
(g58
g59
NtRp1766
(dp1767
g62
(dp1768
g70
I3
ssg71
g1762
sg64
(lp1769
S'99'
p1770
asbasbasbag57
(g73
g59
NtRp1771
(dp1772
g62
(dp1773
sg71
g1742
sg64
(lp1774
g57
(g78
g59
NtRp1775
(dp1776
g62
(dp1777
sg71
g1771
sg64
(lp1778
g57
(g58
g59
NtRp1779
(dp1780
g62
(dp1781
g70
I3
ssg71
g1775
sg64
(lp1782
S'7'
asbasbasbag57
(g73
g59
NtRp1783
(dp1784
g62
(dp1785
sg71
g1742
sg64
(lp1786
g57
(g78
g59
NtRp1787
(dp1788
g62
(dp1789
sg71
g1783
sg64
(lp1790
g57
(g58
g59
NtRp1791
(dp1792
g62
(dp1793
g70
I3
ssg71
g1787
sg64
(lp1794
S'datetime.datetime(2012, 3, 4, 22, 12, 8)'
p1795
asbasbasbag57
(g73
g59
NtRp1796
(dp1797
g62
(dp1798
sg71
g1742
sg64
(lp1799
g57
(g78
g59
NtRp1800
(dp1801
g62
(dp1802
sg71
g1796
sg64
(lp1803
g57
(g58
g59
NtRp1804
(dp1805
g62
(dp1806
g70
I3
ssg71
g1800
sg64
(lp1807
g1197
asbasbasbasbasbasbasbasbasbasbasbag57
(g73
g59
NtRp1808
(dp1809
g62
(dp1810
sg71
g67
sg64
(lp1811
g57
(g78
g59
NtRp1812
(dp1813
g62
(dp1814
g82
g83
ssg71
g1808
sg64
(lp1815
S'is_https'
p1816
asbag57
(g78
g59
NtRp1817
(dp1818
g62
(dp1819
g89
g90
ssg71
g1808
sg64
(lp1820
S':'
asbag57
(g78
g59
NtRp1821
(dp1822
g62
(dp1823
sg71
g1808
sg64
(lp1824
g57
(g58
g59
NtRp1825
(dp1826
g62
(dp1827
g70
I5
ssg71
g1821
sg64
(lp1828
g100
asbasbasbag57
(g73
g59
NtRp1829
(dp1830
g62
(dp1831
sg71
g67
sg64
(lp1832
g57
(g78
g59
NtRp1833
(dp1834
g62
(dp1835
g82
g83
ssg71
g1829
sg64
(lp1836
S'is_local'
p1837
asbag57
(g78
g59
NtRp1838
(dp1839
g62
(dp1840
g89
g90
ssg71
g1829
sg64
(lp1841
S':'
asbag57
(g78
g59
NtRp1842
(dp1843
g62
(dp1844
sg71
g1829
sg64
(lp1845
g57
(g58
g59
NtRp1846
(dp1847
g62
(dp1848
g70
I5
ssg71
g1842
sg64
(lp1849
g1306
asbasbasbag57
(g73
g59
NtRp1850
(dp1851
g62
(dp1852
sg71
g67
sg64
(lp1853
g57
(g78
g59
NtRp1854
(dp1855
g62
(dp1856
g82
g83
ssg71
g1850
sg64
(lp1857
S'is_restful'
p1858
asbag57
(g78
g59
NtRp1859
(dp1860
g62
(dp1861
g89
g90
ssg71
g1850
sg64
(lp1862
S':'
asbag57
(g78
g59
NtRp1863
(dp1864
g62
(dp1865
sg71
g1850
sg64
(lp1866
g57
(g58
g59
NtRp1867
(dp1868
g62
(dp1869
g70
I5
ssg71
g1863
sg64
(lp1870
g100
asbasbasbag57
(g73
g59
NtRp1871
(dp1872
g62
(dp1873
sg71
g67
sg64
(lp1874
g57
(g78
g59
NtRp1875
(dp1876
g62
(dp1877
g82
g83
ssg71
g1871
sg64
(lp1878
S'now'
p1879
asbag57
(g78
g59
NtRp1880
(dp1881
g62
(dp1882
g89
g90
ssg71
g1871
sg64
(lp1883
S':'
asbag57
(g78
g59
NtRp1884
(dp1885
g62
(dp1886
sg71
g1871
sg64
(lp1887
g57
(g58
g59
NtRp1888
(dp1889
g62
(dp1890
g70
I5
ssg71
g1884
sg64
(lp1891
S'datetime.datetime(2013, 1, 11, 8, 59, 10, 30000)'
p1892
asbasbasbag57
(g73
g59
NtRp1893
(dp1894
g62
(dp1895
sg71
g67
sg64
(lp1896
g57
(g78
g59
NtRp1897
(dp1898
g62
(dp1899
g82
g83
ssg71
g1893
sg64
(lp1900
S'post_vars'
p1901
asbag57
(g78
g59
NtRp1902
(dp1903
g62
(dp1904
g89
g90
ssg71
g1893
sg64
(lp1905
S':'
asbag57
(g78
g59
NtRp1906
(dp1907
g62
(dp1908
sg71
g1893
sg64
(lp1909
g57
(g58
g59
NtRp1910
(dp1911
g62
(dp1912
g70
I5
ssg71
g1906
sg64
(lp1913
g57
(g66
g59
NtRp1914
(dp1915
g62
(dp1916
g70
I4
ssg71
Nsg64
(lp1917
sbasbasbasbag57
(g73
g59
NtRp1918
(dp1919
g62
(dp1920
sg71
g67
sg64
(lp1921
g57
(g78
g59
NtRp1922
(dp1923
g62
(dp1924
g82
g83
ssg71
g1918
sg64
(lp1925
S'url'
p1926
asbag57
(g78
g59
NtRp1927
(dp1928
g62
(dp1929
g89
g90
ssg71
g1918
sg64
(lp1930
S':'
asbag57
(g78
g59
NtRp1931
(dp1932
g62
(dp1933
sg71
g1918
sg64
(lp1934
g57
(g58
g59
NtRp1935
(dp1936
g62
(dp1937
g70
I5
ssg71
g1931
sg64
(lp1938
S'/Graficos/tela/index'
p1939
asbasbasbag57
(g73
g59
NtRp1940
(dp1941
g62
(dp1942
sg71
g67
sg64
(lp1943
g57
(g78
g59
NtRp1944
(dp1945
g62
(dp1946
g82
g83
ssg71
g1940
sg64
(lp1947
S'utcnow'
p1948
asbag57
(g78
g59
NtRp1949
(dp1950
g62
(dp1951
g89
g90
ssg71
g1940
sg64
(lp1952
S':'
asbag57
(g78
g59
NtRp1953
(dp1954
g62
(dp1955
sg71
g1940
sg64
(lp1956
g57
(g58
g59
NtRp1957
(dp1958
g62
(dp1959
g70
I5
ssg71
g1953
sg64
(lp1960
S'datetime.datetime(2013, 1, 11, 11, 59, 10, 30000)'
p1961
asbasbasbag57
(g73
g59
NtRp1962
(dp1963
g62
(dp1964
sg71
g67
sg64
(lp1965
g57
(g78
g59
NtRp1966
(dp1967
g62
(dp1968
g82
g83
ssg71
g1962
sg64
(lp1969
S'uuid'
p1970
asbag57
(g78
g59
NtRp1971
(dp1972
g62
(dp1973
g89
g90
ssg71
g1962
sg64
(lp1974
S':'
asbag57
(g78
g59
NtRp1975
(dp1976
g62
(dp1977
sg71
g1962
sg64
(lp1978
g57
(g58
g59
NtRp1979
(dp1980
g62
(dp1981
g70
I5
ssg71
g1975
sg64
(lp1982
S'Graficos/127.0.0.1.2013-01-11.08-59-10.1fe975ed-b987-4301-b2b1-61b66fcac428'
p1983
asbasbasbag57
(g73
g59
NtRp1984
(dp1985
g62
(dp1986
sg71
g67
sg64
(lp1987
g57
(g78
g59
NtRp1988
(dp1989
g62
(dp1990
g82
g83
ssg71
g1984
sg64
(lp1991
S'vars'
p1992
asbag57
(g78
g59
NtRp1993
(dp1994
g62
(dp1995
g89
g90
ssg71
g1984
sg64
(lp1996
S':'
asbag57
(g78
g59
NtRp1997
(dp1998
g62
(dp1999
sg71
g1984
sg64
(lp2000
g57
(g58
g59
NtRp2001
(dp2002
g62
(dp2003
g70
I5
ssg71
g1997
sg64
(lp2004
g57
(g66
g59
NtRp2005
(dp2006
g62
(dp2007
g70
I4
ssg71
Nsg64
(lp2008
sbasbasbasbag57
(g73
g59
NtRp2009
(dp2010
g62
(dp2011
sg71
g67
sg64
(lp2012
g57
(g78
g59
NtRp2013
(dp2014
g62
(dp2015
g82
g83
ssg71
g2009
sg64
(lp2016
S'wsgi'
p2017
asbag57
(g78
g59
NtRp2018
(dp2019
g62
(dp2020
g89
g90
ssg71
g2009
sg64
(lp2021
S':'
asbag57
(g78
g59
NtRp2022
(dp2023
g62
(dp2024
sg71
g2009
sg64
(lp2025
g57
(g58
g59
NtRp2026
(dp2027
g62
(dp2028
g70
I5
ssg71
g2022
sg64
(lp2029
g57
(g66
g59
NtRp2030
(dp2031
g62
(dp2032
g70
I4
ssg71
Nsg64
(lp2033
g57
(g73
g59
NtRp2034
(dp2035
g62
(dp2036
sg71
g2030
sg64
(lp2037
g57
(g78
g59
NtRp2038
(dp2039
g62
(dp2040
g82
g83
ssg71
g2034
sg64
(lp2041
S'environ'
p2042
asbag57
(g78
g59
NtRp2043
(dp2044
g62
(dp2045
g89
g90
ssg71
g2034
sg64
(lp2046
S':'
asbag57
(g78
g59
NtRp2047
(dp2048
g62
(dp2049
sg71
g2034
sg64
(lp2050
g57
(g58
g59
NtRp2051
(dp2052
g62
(dp2053
g70
I4
ssg71
g2047
sg64
(lp2054
g57
(g66
g59
NtRp2055
(dp2056
g62
(dp2057
g70
I3
ssg71
Nsg64
(lp2058
g57
(g73
g59
NtRp2059
(dp2060
g62
(dp2061
sg71
g2055
sg64
(lp2062
g57
(g78
g59
NtRp2063
(dp2064
g62
(dp2065
g82
g83
ssg71
g2059
sg64
(lp2066
S'HTTP_ACCEPT'
p2067
asbag57
(g78
g59
NtRp2068
(dp2069
g62
(dp2070
g89
g90
ssg71
g2059
sg64
(lp2071
S':'
asbag57
(g78
g59
NtRp2072
(dp2073
g62
(dp2074
sg71
g2059
sg64
(lp2075
g57
(g58
g59
NtRp2076
(dp2077
g62
(dp2078
g70
I3
ssg71
g2072
sg64
(lp2079
g633
asbasbasbag57
(g73
g59
NtRp2080
(dp2081
g62
(dp2082
sg71
g2055
sg64
(lp2083
g57
(g78
g59
NtRp2084
(dp2085
g62
(dp2086
g82
g83
ssg71
g2080
sg64
(lp2087
S'HTTP_ACCEPT_ENCODING'
p2088
asbag57
(g78
g59
NtRp2089
(dp2090
g62
(dp2091
g89
g90
ssg71
g2080
sg64
(lp2092
S':'
asbag57
(g78
g59
NtRp2093
(dp2094
g62
(dp2095
sg71
g2080
sg64
(lp2096
g57
(g58
g59
NtRp2097
(dp2098
g62
(dp2099
g70
I3
ssg71
g2093
sg64
(lp2100
g655
asbasbasbag57
(g73
g59
NtRp2101
(dp2102
g62
(dp2103
sg71
g2055
sg64
(lp2104
g57
(g78
g59
NtRp2105
(dp2106
g62
(dp2107
g82
g83
ssg71
g2101
sg64
(lp2108
S'HTTP_ACCEPT_LANGUAGE'
p2109
asbag57
(g78
g59
NtRp2110
(dp2111
g62
(dp2112
g89
g90
ssg71
g2101
sg64
(lp2113
S':'
asbag57
(g78
g59
NtRp2114
(dp2115
g62
(dp2116
sg71
g2101
sg64
(lp2117
g57
(g58
g59
NtRp2118
(dp2119
g62
(dp2120
g70
I3
ssg71
g2114
sg64
(lp2121
g677
asbasbasbag57
(g73
g59
NtRp2122
(dp2123
g62
(dp2124
sg71
g2055
sg64
(lp2125
g57
(g78
g59
NtRp2126
(dp2127
g62
(dp2128
g82
g83
ssg71
g2122
sg64
(lp2129
S'HTTP_CONNECTION'
p2130
asbag57
(g78
g59
NtRp2131
(dp2132
g62
(dp2133
g89
g90
ssg71
g2122
sg64
(lp2134
S':'
asbag57
(g78
g59
NtRp2135
(dp2136
g62
(dp2137
sg71
g2122
sg64
(lp2138
g57
(g58
g59
NtRp2139
(dp2140
g62
(dp2141
g70
I3
ssg71
g2135
sg64
(lp2142
g699
asbasbasbag57
(g73
g59
NtRp2143
(dp2144
g62
(dp2145
sg71
g2055
sg64
(lp2146
g57
(g78
g59
NtRp2147
(dp2148
g62
(dp2149
g82
g83
ssg71
g2143
sg64
(lp2150
S'HTTP_COOKIE'
p2151
asbag57
(g78
g59
NtRp2152
(dp2153
g62
(dp2154
g89
g90
ssg71
g2143
sg64
(lp2155
S':'
asbag57
(g78
g59
NtRp2156
(dp2157
g62
(dp2158
sg71
g2143
sg64
(lp2159
g57
(g58
g59
NtRp2160
(dp2161
g62
(dp2162
g70
I3
ssg71
g2156
sg64
(lp2163
g721
asbasbasbag57
(g73
g59
NtRp2164
(dp2165
g62
(dp2166
sg71
g2055
sg64
(lp2167
g57
(g78
g59
NtRp2168
(dp2169
g62
(dp2170
g82
g83
ssg71
g2164
sg64
(lp2171
S'HTTP_HOST'
p2172
asbag57
(g78
g59
NtRp2173
(dp2174
g62
(dp2175
g89
g90
ssg71
g2164
sg64
(lp2176
S':'
asbag57
(g78
g59
NtRp2177
(dp2178
g62
(dp2179
sg71
g2164
sg64
(lp2180
g57
(g58
g59
NtRp2181
(dp2182
g62
(dp2183
g70
I3
ssg71
g2177
sg64
(lp2184
g743
asbasbasbag57
(g73
g59
NtRp2185
(dp2186
g62
(dp2187
sg71
g2055
sg64
(lp2188
g57
(g78
g59
NtRp2189
(dp2190
g62
(dp2191
g82
g83
ssg71
g2185
sg64
(lp2192
S'HTTP_USER_AGENT'
p2193
asbag57
(g78
g59
NtRp2194
(dp2195
g62
(dp2196
g89
g90
ssg71
g2185
sg64
(lp2197
S':'
asbag57
(g78
g59
NtRp2198
(dp2199
g62
(dp2200
sg71
g2185
sg64
(lp2201
g57
(g58
g59
NtRp2202
(dp2203
g62
(dp2204
g70
I3
ssg71
g2198
sg64
(lp2205
g765
asbasbasbag57
(g73
g59
NtRp2206
(dp2207
g62
(dp2208
sg71
g2055
sg64
(lp2209
g57
(g78
g59
NtRp2210
(dp2211
g62
(dp2212
g82
g83
ssg71
g2206
sg64
(lp2213
S'PATH_INFO'
p2214
asbag57
(g78
g59
NtRp2215
(dp2216
g62
(dp2217
g89
g90
ssg71
g2206
sg64
(lp2218
S':'
asbag57
(g78
g59
NtRp2219
(dp2220
g62
(dp2221
sg71
g2206
sg64
(lp2222
g57
(g58
g59
NtRp2223
(dp2224
g62
(dp2225
g70
I3
ssg71
g2219
sg64
(lp2226
g829
asbasbasbag57
(g73
g59
NtRp2227
(dp2228
g62
(dp2229
sg71
g2055
sg64
(lp2230
g57
(g78
g59
NtRp2231
(dp2232
g62
(dp2233
g82
g83
ssg71
g2227
sg64
(lp2234
S'QUERY_STRING'
p2235
asbag57
(g78
g59
NtRp2236
(dp2237
g62
(dp2238
g89
g90
ssg71
g2227
sg64
(lp2239
S':'
asbag57
(g78
g59
NtRp2240
(dp2241
g62
(dp2242
sg71
g2227
sg64
(lp2243
g57
(g58
g59
NtRp2244
(dp2245
g62
(dp2246
g70
I3
ssg71
g2240
sg64
(lp2247
S''
asbasbasbag57
(g73
g59
NtRp2248
(dp2249
g62
(dp2250
sg71
g2055
sg64
(lp2251
g57
(g78
g59
NtRp2252
(dp2253
g62
(dp2254
g82
g83
ssg71
g2248
sg64
(lp2255
S'REMOTE_ADDR'
p2256
asbag57
(g78
g59
NtRp2257
(dp2258
g62
(dp2259
g89
g90
ssg71
g2248
sg64
(lp2260
S':'
asbag57
(g78
g59
NtRp2261
(dp2262
g62
(dp2263
sg71
g2248
sg64
(lp2264
g57
(g58
g59
NtRp2265
(dp2266
g62
(dp2267
g70
I3
ssg71
g2261
sg64
(lp2268
g190
asbasbasbag57
(g73
g59
NtRp2269
(dp2270
g62
(dp2271
sg71
g2055
sg64
(lp2272
g57
(g78
g59
NtRp2273
(dp2274
g62
(dp2275
g82
g83
ssg71
g2269
sg64
(lp2276
S'REMOTE_PORT'
p2277
asbag57
(g78
g59
NtRp2278
(dp2279
g62
(dp2280
g89
g90
ssg71
g2269
sg64
(lp2281
S':'
asbag57
(g78
g59
NtRp2282
(dp2283
g62
(dp2284
sg71
g2269
sg64
(lp2285
g57
(g58
g59
NtRp2286
(dp2287
g62
(dp2288
g70
I3
ssg71
g2282
sg64
(lp2289
g893
asbasbasbag57
(g73
g59
NtRp2290
(dp2291
g62
(dp2292
sg71
g2055
sg64
(lp2293
g57
(g78
g59
NtRp2294
(dp2295
g62
(dp2296
g82
g83
ssg71
g2290
sg64
(lp2297
S'REQUEST_METHOD'
p2298
asbag57
(g78
g59
NtRp2299
(dp2300
g62
(dp2301
g89
g90
ssg71
g2290
sg64
(lp2302
S':'
asbag57
(g78
g59
NtRp2303
(dp2304
g62
(dp2305
sg71
g2290
sg64
(lp2306
g57
(g58
g59
NtRp2307
(dp2308
g62
(dp2309
g70
I3
ssg71
g2303
sg64
(lp2310
g915
asbasbasbag57
(g73
g59
NtRp2311
(dp2312
g62
(dp2313
sg71
g2055
sg64
(lp2314
g57
(g78
g59
NtRp2315
(dp2316
g62
(dp2317
g82
g83
ssg71
g2311
sg64
(lp2318
S'REQUEST_URI'
p2319
asbag57
(g78
g59
NtRp2320
(dp2321
g62
(dp2322
g89
g90
ssg71
g2311
sg64
(lp2323
S':'
asbag57
(g78
g59
NtRp2324
(dp2325
g62
(dp2326
sg71
g2311
sg64
(lp2327
g57
(g58
g59
NtRp2328
(dp2329
g62
(dp2330
g70
I3
ssg71
g2324
sg64
(lp2331
g829
asbasbasbag57
(g73
g59
NtRp2332
(dp2333
g62
(dp2334
sg71
g2055
sg64
(lp2335
g57
(g78
g59
NtRp2336
(dp2337
g62
(dp2338
g82
g83
ssg71
g2332
sg64
(lp2339
S'SCRIPT_NAME'
p2340
asbag57
(g78
g59
NtRp2341
(dp2342
g62
(dp2343
g89
g90
ssg71
g2332
sg64
(lp2344
S':'
asbag57
(g78
g59
NtRp2345
(dp2346
g62
(dp2347
sg71
g2332
sg64
(lp2348
g57
(g58
g59
NtRp2349
(dp2350
g62
(dp2351
g70
I3
ssg71
g2345
sg64
(lp2352
S''
asbasbasbag57
(g73
g59
NtRp2353
(dp2354
g62
(dp2355
sg71
g2055
sg64
(lp2356
g57
(g78
g59
NtRp2357
(dp2358
g62
(dp2359
g82
g83
ssg71
g2353
sg64
(lp2360
S'SERVER_NAME'
p2361
asbag57
(g78
g59
NtRp2362
(dp2363
g62
(dp2364
g89
g90
ssg71
g2353
sg64
(lp2365
S':'
asbag57
(g78
g59
NtRp2366
(dp2367
g62
(dp2368
sg71
g2353
sg64
(lp2369
g57
(g58
g59
NtRp2370
(dp2371
g62
(dp2372
g70
I3
ssg71
g2366
sg64
(lp2373
g979
asbasbasbag57
(g73
g59
NtRp2374
(dp2375
g62
(dp2376
sg71
g2055
sg64
(lp2377
g57
(g78
g59
NtRp2378
(dp2379
g62
(dp2380
g82
g83
ssg71
g2374
sg64
(lp2381
S'SERVER_PORT'
p2382
asbag57
(g78
g59
NtRp2383
(dp2384
g62
(dp2385
g89
g90
ssg71
g2374
sg64
(lp2386
S':'
asbag57
(g78
g59
NtRp2387
(dp2388
g62
(dp2389
sg71
g2374
sg64
(lp2390
g57
(g58
g59
NtRp2391
(dp2392
g62
(dp2393
g70
I3
ssg71
g2387
sg64
(lp2394
g1001
asbasbasbag57
(g73
g59
NtRp2395
(dp2396
g62
(dp2397
sg71
g2055
sg64
(lp2398
g57
(g78
g59
NtRp2399
(dp2400
g62
(dp2401
g82
g83
ssg71
g2395
sg64
(lp2402
S'SERVER_PROTOCOL'
p2403
asbag57
(g78
g59
NtRp2404
(dp2405
g62
(dp2406
g89
g90
ssg71
g2395
sg64
(lp2407
S':'
asbag57
(g78
g59
NtRp2408
(dp2409
g62
(dp2410
sg71
g2395
sg64
(lp2411
g57
(g58
g59
NtRp2412
(dp2413
g62
(dp2414
g70
I3
ssg71
g2408
sg64
(lp2415
g1023
asbasbasbag57
(g73
g59
NtRp2416
(dp2417
g62
(dp2418
sg71
g2055
sg64
(lp2419
g57
(g78
g59
NtRp2420
(dp2421
g62
(dp2422
g82
g83
ssg71
g2416
sg64
(lp2423
S'SERVER_SOFTWARE'
p2424
asbag57
(g78
g59
NtRp2425
(dp2426
g62
(dp2427
g89
g90
ssg71
g2416
sg64
(lp2428
S':'
asbag57
(g78
g59
NtRp2429
(dp2430
g62
(dp2431
sg71
g2416
sg64
(lp2432
g57
(g58
g59
NtRp2433
(dp2434
g62
(dp2435
g70
I3
ssg71
g2429
sg64
(lp2436
g1045
asbasbasbag57
(g73
g59
NtRp2437
(dp2438
g62
(dp2439
sg71
g2055
sg64
(lp2440
g57
(g78
g59
NtRp2441
(dp2442
g62
(dp2443
g82
g83
ssg71
g2437
sg64
(lp2444
S'WEB2PY_ORIGINAL_URI'
p2445
asbag57
(g78
g59
NtRp2446
(dp2447
g62
(dp2448
g89
g90
ssg71
g2437
sg64
(lp2449
S':'
asbag57
(g78
g59
NtRp2450
(dp2451
g62
(dp2452
sg71
g2437
sg64
(lp2453
g57
(g58
g59
NtRp2454
(dp2455
g62
(dp2456
g70
I3
ssg71
g2450
sg64
(lp2457
g829
asbasbasbag57
(g73
g59
NtRp2458
(dp2459
g62
(dp2460
sg71
g2055
sg64
(lp2461
g57
(g78
g59
NtRp2462
(dp2463
g62
(dp2464
g82
g83
ssg71
g2458
sg64
(lp2465
S'wsgi.errors'
p2466
asbag57
(g78
g59
NtRp2467
(dp2468
g62
(dp2469
g89
g90
ssg71
g2458
sg64
(lp2470
S':'
asbag57
(g78
g59
NtRp2471
(dp2472
g62
(dp2473
sg71
g2458
sg64
(lp2474
g57
(g58
g59
NtRp2475
(dp2476
g62
(dp2477
g70
I3
ssg71
g2471
sg64
(lp2478
S"<open file '<stderr>', mode 'w' at 0x01E450D0>"
p2479
asbasbasbag57
(g73
g59
NtRp2480
(dp2481
g62
(dp2482
sg71
g2055
sg64
(lp2483
g57
(g78
g59
NtRp2484
(dp2485
g62
(dp2486
g82
g83
ssg71
g2480
sg64
(lp2487
S'wsgi.file_wrapper'
p2488
asbag57
(g78
g59
NtRp2489
(dp2490
g62
(dp2491
g89
g90
ssg71
g2480
sg64
(lp2492
S':'
asbag57
(g78
g59
NtRp2493
(dp2494
g62
(dp2495
sg71
g2480
sg64
(lp2496
g57
(g58
g59
NtRp2497
(dp2498
g62
(dp2499
g70
I3
ssg71
g2493
sg64
(lp2500
S'<class wsgiref.util.FileWrapper at 0x03972768>'
p2501
asbasbasbag57
(g73
g59
NtRp2502
(dp2503
g62
(dp2504
sg71
g2055
sg64
(lp2505
g57
(g78
g59
NtRp2506
(dp2507
g62
(dp2508
g82
g83
ssg71
g2502
sg64
(lp2509
S'wsgi.input'
p2510
asbag57
(g78
g59
NtRp2511
(dp2512
g62
(dp2513
g89
g90
ssg71
g2502
sg64
(lp2514
S':'
asbag57
(g78
g59
NtRp2515
(dp2516
g62
(dp2517
sg71
g2502
sg64
(lp2518
g57
(g58
g59
NtRp2519
(dp2520
g62
(dp2521
g70
I3
ssg71
g2515
sg64
(lp2522
S'<cStringIO.StringO object at 0x03BCC980>'
p2523
asbasbasbag57
(g73
g59
NtRp2524
(dp2525
g62
(dp2526
sg71
g2055
sg64
(lp2527
g57
(g78
g59
NtRp2528
(dp2529
g62
(dp2530
g82
g83
ssg71
g2524
sg64
(lp2531
S'wsgi.multiprocess'
p2532
asbag57
(g78
g59
NtRp2533
(dp2534
g62
(dp2535
g89
g90
ssg71
g2524
sg64
(lp2536
S':'
asbag57
(g78
g59
NtRp2537
(dp2538
g62
(dp2539
sg71
g2524
sg64
(lp2540
g57
(g58
g59
NtRp2541
(dp2542
g62
(dp2543
g70
I3
ssg71
g2537
sg64
(lp2544
g100
asbasbasbag57
(g73
g59
NtRp2545
(dp2546
g62
(dp2547
sg71
g2055
sg64
(lp2548
g57
(g78
g59
NtRp2549
(dp2550
g62
(dp2551
g82
g83
ssg71
g2545
sg64
(lp2552
S'wsgi.multithread'
p2553
asbag57
(g78
g59
NtRp2554
(dp2555
g62
(dp2556
g89
g90
ssg71
g2545
sg64
(lp2557
S':'
asbag57
(g78
g59
NtRp2558
(dp2559
g62
(dp2560
sg71
g2545
sg64
(lp2561
g57
(g58
g59
NtRp2562
(dp2563
g62
(dp2564
g70
I3
ssg71
g2558
sg64
(lp2565
g1306
asbasbasbag57
(g73
g59
NtRp2566
(dp2567
g62
(dp2568
sg71
g2055
sg64
(lp2569
g57
(g78
g59
NtRp2570
(dp2571
g62
(dp2572
g82
g83
ssg71
g2566
sg64
(lp2573
S'wsgi.run_once'
p2574
asbag57
(g78
g59
NtRp2575
(dp2576
g62
(dp2577
g89
g90
ssg71
g2566
sg64
(lp2578
S':'
asbag57
(g78
g59
NtRp2579
(dp2580
g62
(dp2581
sg71
g2566
sg64
(lp2582
g57
(g58
g59
NtRp2583
(dp2584
g62
(dp2585
g70
I3
ssg71
g2579
sg64
(lp2586
g100
asbasbasbag57
(g73
g59
NtRp2587
(dp2588
g62
(dp2589
sg71
g2055
sg64
(lp2590
g57
(g78
g59
NtRp2591
(dp2592
g62
(dp2593
g82
g83
ssg71
g2587
sg64
(lp2594
S'wsgi.url_scheme'
p2595
asbag57
(g78
g59
NtRp2596
(dp2597
g62
(dp2598
g89
g90
ssg71
g2587
sg64
(lp2599
S':'
asbag57
(g78
g59
NtRp2600
(dp2601
g62
(dp2602
sg71
g2587
sg64
(lp2603
g57
(g58
g59
NtRp2604
(dp2605
g62
(dp2606
g70
I3
ssg71
g2600
sg64
(lp2607
g1349
asbasbasbag57
(g73
g59
NtRp2608
(dp2609
g62
(dp2610
sg71
g2055
sg64
(lp2611
g57
(g78
g59
NtRp2612
(dp2613
g62
(dp2614
g82
g83
ssg71
g2608
sg64
(lp2615
S'wsgi.version'
p2616
asbag57
(g78
g59
NtRp2617
(dp2618
g62
(dp2619
g89
g90
ssg71
g2608
sg64
(lp2620
S':'
asbag57
(g78
g59
NtRp2621
(dp2622
g62
(dp2623
sg71
g2608
sg64
(lp2624
g57
(g58
g59
NtRp2625
(dp2626
g62
(dp2627
g70
I3
ssg71
g2621
sg64
(lp2628
S'1'
asbasbasbasbasbasbasbasbasbasbasbasbasbsS'frames'
p2629
(lp2630
(dp2631
S'file'
p2632
S'C:\\Python27\\web2py\\gluon\\restricted.py'
p2633
sS'dump'
p2634
(dp2635
S'environment'
p2636
S"{'A': <class 'gluon.html.A'>, 'B': <class 'gluon.html.B'>, 'BEAUTIFY': <class 'gluon.html.BEAUTIFY'>, 'BODY': <class 'gluon.html.BODY'>, 'BR': <class 'gluon.html.BR'>, 'BUTTON': <class 'gluon.html.BUTTON'>, 'CAT': <class 'gluon.html.CAT'>, 'CENTER': <class 'gluon.html.CENTER'>, 'CLEANUP': <class 'gluon.validators.CLEANUP'>, 'CODE': <class 'gluon.html.CODE'>, ...}"
p2637
sS'ccode'
p2638
S'<code object <module> at 03B7AB60, file "C:\\Pyth...plications\\Graficos\\controllers/tela.py", line 3>'
p2639
ssS'lnum'
p2640
I205
sS'lines'
p2641
(dp2642
I200
S'    try:'
p2643
sI201
S'        if type(code) == types.CodeType:'
p2644
sI202
S'            ccode = code'
p2645
sI203
S'        else:'
p2646
sI204
S'            ccode = compile2(code,layer)'
p2647
sI205
S'        exec ccode in environment'
p2648
sI206
S'    except HTTP:'
p2649
sI207
S'        raise'
p2650
sI208
S'    except RestrictedError:'
p2651
sI209
S'        # do not encapsulate (obfuscate) the original RestrictedError'
p2652
ssS'call'
p2653
S"(code='# -*- coding: utf-8 -*-\\n\\nfrom gluon.custom_impor...colunas\\n\\n\\nresponse._vars=response._caller(index)\\n', environment={'A': <class 'gluon.html.A'>, 'B': <class 'gluon.html.B'>, 'BEAUTIFY': <class 'gluon.html.BEAUTIFY'>, 'BODY': <class 'gluon.html.BODY'>, 'BR': <class 'gluon.html.BR'>, 'BUTTON': <class 'gluon.html.BUTTON'>, 'CAT': <class 'gluon.html.CAT'>, 'CENTER': <class 'gluon.html.CENTER'>, 'CLEANUP': <class 'gluon.validators.CLEANUP'>, 'CODE': <class 'gluon.html.CODE'>, ...}, layer=r'C:\\Python27\\web2py\\applications\\Graficos\\controllers/tela.py')"
p2654
sS'func'
p2655
S'restricted'
p2656
sa(dp2657
g2632
S'C:\\Python27\\web2py\\applications\\Graficos\\controllers\\tela.py'
p2658
sg2634
(dp2659
sg2640
I86
sg2641
(dp2660
I75
S''
sI76
S'    for c in xrange(1,nmcolunas):'
p2661
sI77
S''
sI78
S'        # adiciona colunas a linha at\xc3\xa9 a quantidade selecionada'
p2662
sI79
S''
sI80
S"        colunas =  colunas + (DIV(SCRIPT(XML(strchart2),_type='text/javascript'),"
p2663
sI81
S"                              _id='container' + str(nmlinha) + str(c),_style='width:' + str(largcel) + 'px; height: ' + str(altcel) + 'px; margin: 0 auto'), )"
p2664
sI82
S''
sI83
S'    return colunas'
p2665
sI84
S''
ssg2653
S'()'
p2666
sg2655
S'<module>'
p2667
sa(dp2668
g2632
S'C:\\Python27\\web2py\\gluon\\globals.py'
p2669
sg2634
(dp2670
S'self'
p2671
S'undefined'
p2672
sS'f'
S'<function index>'
p2673
ssg2640
I173
sg2641
(dp2674
I168
S'        self.menu = []             # used by the default view layout'
p2675
sI169
S'        self.files = []            # used by web2py_ajax.html'
p2676
sI170
S'        self.generic_patterns = [] # patterns to allow generic views'
p2677
sI171
S"        self.delimiters = ('{{','}}')"
p2678
sI172
S'        self._vars = None'
p2679
sI173
S'        self._caller = lambda f: f()'
p2680
sI174
S'        self._view_environment = None'
p2681
sI175
S'        self._custom_commit = None'
p2682
sI176
S'        self._custom_rollback = None'
p2683
sI177
S''
ssg2653
S'(f=<function index>)'
p2684
sg2655
S'<lambda>'
p2685
sa(dp2686
g2632
S'C:\\Python27\\web2py\\applications\\Graficos\\controllers\\tela.py'
p2687
sg2634
(dp2688
S'a'
g2672
sS'global html'
p2689
S'<function html>'
p2690
sS'chart2'
p2691
g2672
sS'chart1'
p2692
S"'$(function () {\\n    \\n    /*** Get the current ti...h.sin( (t*d-s)*(2*Math.PI)/p ) + c + b;\\n    }\\n});'"
p2693
ssg2640
I19
sg2641
(dp2694
I14
S"    #chart1 = grafico.chart('column', 'container01')"
p2695
sI15
S''
sI16
S"    chart1 = clock('gauge', 'container')"
p2696
sI17
S''
sI18
S''
sI19
S'    a = html(chart1, chart2)'
p2697
sI20
S''
sI21
S''
sI22
S'    largura = 1440'
p2698
sI23
S'    altura = 860'
p2699
ssg2653
S'()'
p2700
sg2655
g1464
sasS'pyver'
p2701
S'Python 2.7.3: C:\\Python27\\python.exe'
p2702
sS'session'
p2703
g57
(g58
g59
NtRp2704
(dp2705
g62
(dp2706
sg64
(lp2707
g57
(g66
g59
NtRp2708
(dp2709
g62
(dp2710
g70
I5
ssg71
Nsg64
(lp2711
sbasbsS'etype'
p2712
S"<type 'exceptions.NameError'>"
p2713
sS'date'
p2714
S'Fri Jan 11 08:59:10 2013'
p2715
sS'response'
p2716
g57
(g58
g59
NtRp2717
(dp2718
g62
(dp2719
sg64
(lp2720
g57
(g66
g59
NtRp2721
(dp2722
g62
(dp2723
g70
I5
ssg71
Nsg64
(lp2724
g57
(g73
g59
NtRp2725
(dp2726
g62
(dp2727
sg71
g2721
sg64
(lp2728
g57
(g78
g59
NtRp2729
(dp2730
g62
(dp2731
g82
g83
ssg71
g2725
sg64
(lp2732
g155
asbag57
(g78
g59
NtRp2733
(dp2734
g62
(dp2735
g89
g90
ssg71
g2725
sg64
(lp2736
S':'
asbag57
(g78
g59
NtRp2737
(dp2738
g62
(dp2739
sg71
g2725
sg64
(lp2740
g57
(g58
g59
NtRp2741
(dp2742
g62
(dp2743
g70
I5
ssg71
g2737
sg64
(lp2744
S'<cStringIO.StringO object at 0x03BCC6C0>'
p2745
asbasbasbag57
(g73
g59
NtRp2746
(dp2747
g62
(dp2748
sg71
g2721
sg64
(lp2749
g57
(g78
g59
NtRp2750
(dp2751
g62
(dp2752
g82
g83
ssg71
g2746
sg64
(lp2753
g221
asbag57
(g78
g59
NtRp2754
(dp2755
g62
(dp2756
g89
g90
ssg71
g2746
sg64
(lp2757
S':'
asbag57
(g78
g59
NtRp2758
(dp2759
g62
(dp2760
sg71
g2746
sg64
(lp2761
g57
(g58
g59
NtRp2762
(dp2763
g62
(dp2764
g70
I5
ssg71
g2758
sg64
(lp2765
g57
(g66
g59
NtRp2766
(dp2767
g62
(dp2768
g70
I4
ssg71
Nsg64
(lp2769
g57
(g73
g59
NtRp2770
(dp2771
g62
(dp2772
sg71
g2766
sg64
(lp2773
g57
(g78
g59
NtRp2774
(dp2775
g62
(dp2776
g82
g83
ssg71
g2770
sg64
(lp2777
S'session_id_graficos'
p2778
asbag57
(g78
g59
NtRp2779
(dp2780
g62
(dp2781
g89
g90
ssg71
g2770
sg64
(lp2782
S':'
asbag57
(g78
g59
NtRp2783
(dp2784
g62
(dp2785
sg71
g2770
sg64
(lp2786
g57
(g58
g59
NtRp2787
(dp2788
g62
(dp2789
g70
I4
ssg71
g2783
sg64
(lp2790
g57
(g66
g59
NtRp2791
(dp2792
g62
(dp2793
g70
I3
ssg71
Nsg64
(lp2794
g57
(g73
g59
NtRp2795
(dp2796
g62
(dp2797
sg71
g2791
sg64
(lp2798
g57
(g78
g59
NtRp2799
(dp2800
g62
(dp2801
g82
g83
ssg71
g2795
sg64
(lp2802
g271
asbag57
(g78
g59
NtRp2803
(dp2804
g62
(dp2805
g89
g90
ssg71
g2795
sg64
(lp2806
S':'
asbag57
(g78
g59
NtRp2807
(dp2808
g62
(dp2809
sg71
g2795
sg64
(lp2810
g57
(g58
g59
NtRp2811
(dp2812
g62
(dp2813
g70
I3
ssg71
g2807
sg64
(lp2814
S''
asbasbasbag57
(g73
g59
NtRp2815
(dp2816
g62
(dp2817
sg71
g2791
sg64
(lp2818
g57
(g78
g59
NtRp2819
(dp2820
g62
(dp2821
g82
g83
ssg71
g2815
sg64
(lp2822
g292
asbag57
(g78
g59
NtRp2823
(dp2824
g62
(dp2825
g89
g90
ssg71
g2815
sg64
(lp2826
S':'
asbag57
(g78
g59
NtRp2827
(dp2828
g62
(dp2829
sg71
g2815
sg64
(lp2830
g57
(g58
g59
NtRp2831
(dp2832
g62
(dp2833
g70
I3
ssg71
g2827
sg64
(lp2834
S''
asbasbasbag57
(g73
g59
NtRp2835
(dp2836
g62
(dp2837
sg71
g2791
sg64
(lp2838
g57
(g78
g59
NtRp2839
(dp2840
g62
(dp2841
g82
g83
ssg71
g2835
sg64
(lp2842
g313
asbag57
(g78
g59
NtRp2843
(dp2844
g62
(dp2845
g89
g90
ssg71
g2835
sg64
(lp2846
S':'
asbag57
(g78
g59
NtRp2847
(dp2848
g62
(dp2849
sg71
g2835
sg64
(lp2850
g57
(g58
g59
NtRp2851
(dp2852
g62
(dp2853
g70
I3
ssg71
g2847
sg64
(lp2854
S''
asbasbasbag57
(g73
g59
NtRp2855
(dp2856
g62
(dp2857
sg71
g2791
sg64
(lp2858
g57
(g78
g59
NtRp2859
(dp2860
g62
(dp2861
g82
g83
ssg71
g2855
sg64
(lp2862
g334
asbag57
(g78
g59
NtRp2863
(dp2864
g62
(dp2865
g89
g90
ssg71
g2855
sg64
(lp2866
S':'
asbag57
(g78
g59
NtRp2867
(dp2868
g62
(dp2869
sg71
g2855
sg64
(lp2870
g57
(g58
g59
NtRp2871
(dp2872
g62
(dp2873
g70
I3
ssg71
g2867
sg64
(lp2874
S''
asbasbasbag57
(g73
g59
NtRp2875
(dp2876
g62
(dp2877
sg71
g2791
sg64
(lp2878
g57
(g78
g59
NtRp2879
(dp2880
g62
(dp2881
g82
g83
ssg71
g2875
sg64
(lp2882
g355
asbag57
(g78
g59
NtRp2883
(dp2884
g62
(dp2885
g89
g90
ssg71
g2875
sg64
(lp2886
S':'
asbag57
(g78
g59
NtRp2887
(dp2888
g62
(dp2889
sg71
g2875
sg64
(lp2890
g57
(g58
g59
NtRp2891
(dp2892
g62
(dp2893
g70
I3
ssg71
g2887
sg64
(lp2894
S''
asbasbasbag57
(g73
g59
NtRp2895
(dp2896
g62
(dp2897
sg71
g2791
sg64
(lp2898
g57
(g78
g59
NtRp2899
(dp2900
g62
(dp2901
g82
g83
ssg71
g2895
sg64
(lp2902
g376
asbag57
(g78
g59
NtRp2903
(dp2904
g62
(dp2905
g89
g90
ssg71
g2895
sg64
(lp2906
S':'
asbag57
(g78
g59
NtRp2907
(dp2908
g62
(dp2909
sg71
g2895
sg64
(lp2910
g57
(g58
g59
NtRp2911
(dp2912
g62
(dp2913
g70
I3
ssg71
g2907
sg64
(lp2914
S'/'
asbasbasbag57
(g73
g59
NtRp2915
(dp2916
g62
(dp2917
sg71
g2791
sg64
(lp2918
g57
(g78
g59
NtRp2919
(dp2920
g62
(dp2921
g82
g83
ssg71
g2915
sg64
(lp2922
g397
asbag57
(g78
g59
NtRp2923
(dp2924
g62
(dp2925
g89
g90
ssg71
g2915
sg64
(lp2926
S':'
asbag57
(g78
g59
NtRp2927
(dp2928
g62
(dp2929
sg71
g2915
sg64
(lp2930
g57
(g58
g59
NtRp2931
(dp2932
g62
(dp2933
g70
I3
ssg71
g2927
sg64
(lp2934
S''
asbasbasbag57
(g73
g59
NtRp2935
(dp2936
g62
(dp2937
sg71
g2791
sg64
(lp2938
g57
(g78
g59
NtRp2939
(dp2940
g62
(dp2941
g82
g83
ssg71
g2935
sg64
(lp2942
g418
asbag57
(g78
g59
NtRp2943
(dp2944
g62
(dp2945
g89
g90
ssg71
g2935
sg64
(lp2946
S':'
asbag57
(g78
g59
NtRp2947
(dp2948
g62
(dp2949
sg71
g2935
sg64
(lp2950
g57
(g58
g59
NtRp2951
(dp2952
g62
(dp2953
g70
I3
ssg71
g2947
sg64
(lp2954
S''
asbasbasbasbasbasbasbasbasbasbasbag57
(g73
g59
NtRp2955
(dp2956
g62
(dp2957
sg71
g2721
sg64
(lp2958
g57
(g78
g59
NtRp2959
(dp2960
g62
(dp2961
g82
g83
ssg71
g2955
sg64
(lp2962
S'delimiters'
p2963
asbag57
(g78
g59
NtRp2964
(dp2965
g62
(dp2966
g89
g90
ssg71
g2955
sg64
(lp2967
S':'
asbag57
(g78
g59
NtRp2968
(dp2969
g62
(dp2970
sg71
g2955
sg64
(lp2971
g57
(g58
g59
NtRp2972
(dp2973
g62
(dp2974
g70
I5
ssg71
g2968
sg64
(lp2975
g57
(g66
g59
NtRp2976
(dp2977
g62
(dp2978
g70
I4
ssg71
Nsg64
(lp2979
g57
(g73
g59
NtRp2980
(dp2981
g62
(dp2982
sg71
g2976
sg64
(lp2983
g57
(g78
g59
NtRp2984
(dp2985
g62
(dp2986
sg71
g2980
sg64
(lp2987
g57
(g58
g59
NtRp2988
(dp2989
g62
(dp2990
g70
I4
ssg71
g2984
sg64
(lp2991
S'{{'
p2992
asbasbasbag57
(g73
g59
NtRp2993
(dp2994
g62
(dp2995
sg71
g2976
sg64
(lp2996
g57
(g78
g59
NtRp2997
(dp2998
g62
(dp2999
sg71
g2993
sg64
(lp3000
g57
(g58
g59
NtRp3001
(dp3002
g62
(dp3003
g70
I4
ssg71
g2997
sg64
(lp3004
S'}}'
p3005
asbasbasbasbasbasbasbag57
(g73
g59
NtRp3006
(dp3007
g62
(dp3008
sg71
g2721
sg64
(lp3009
g57
(g78
g59
NtRp3010
(dp3011
g62
(dp3012
g82
g83
ssg71
g3006
sg64
(lp3013
S'files'
p3014
asbag57
(g78
g59
NtRp3015
(dp3016
g62
(dp3017
g89
g90
ssg71
g3006
sg64
(lp3018
S':'
asbag57
(g78
g59
NtRp3019
(dp3020
g62
(dp3021
sg71
g3006
sg64
(lp3022
g57
(g58
g59
NtRp3023
(dp3024
g62
(dp3025
g70
I5
ssg71
g3019
sg64
(lp3026
g57
(g66
g59
NtRp3027
(dp3028
g62
(dp3029
g70
I4
ssg71
Nsg64
(lp3030
sbasbasbasbag57
(g73
g59
NtRp3031
(dp3032
g62
(dp3033
sg71
g2721
sg64
(lp3034
g57
(g78
g59
NtRp3035
(dp3036
g62
(dp3037
g82
g83
ssg71
g3031
sg64
(lp3038
S'flash'
p3039
asbag57
(g78
g59
NtRp3040
(dp3041
g62
(dp3042
g89
g90
ssg71
g3031
sg64
(lp3043
S':'
asbag57
(g78
g59
NtRp3044
(dp3045
g62
(dp3046
sg71
g3031
sg64
(lp3047
g57
(g58
g59
NtRp3048
(dp3049
g62
(dp3050
g70
I5
ssg71
g3044
sg64
(lp3051
S''
asbasbasbag57
(g73
g59
NtRp3052
(dp3053
g62
(dp3054
sg71
g2721
sg64
(lp3055
g57
(g78
g59
NtRp3056
(dp3057
g62
(dp3058
g82
g83
ssg71
g3052
sg64
(lp3059
S'generic_patterns'
p3060
asbag57
(g78
g59
NtRp3061
(dp3062
g62
(dp3063
g89
g90
ssg71
g3052
sg64
(lp3064
S':'
asbag57
(g78
g59
NtRp3065
(dp3066
g62
(dp3067
sg71
g3052
sg64
(lp3068
g57
(g58
g59
NtRp3069
(dp3070
g62
(dp3071
g70
I5
ssg71
g3065
sg64
(lp3072
g57
(g66
g59
NtRp3073
(dp3074
g62
(dp3075
g70
I4
ssg71
Nsg64
(lp3076
sbasbasbasbag57
(g73
g59
NtRp3077
(dp3078
g62
(dp3079
sg71
g2721
sg64
(lp3080
g57
(g78
g59
NtRp3081
(dp3082
g62
(dp3083
g82
g83
ssg71
g3077
sg64
(lp3084
S'headers'
p3085
asbag57
(g78
g59
NtRp3086
(dp3087
g62
(dp3088
g89
g90
ssg71
g3077
sg64
(lp3089
S':'
asbag57
(g78
g59
NtRp3090
(dp3091
g62
(dp3092
sg71
g3077
sg64
(lp3093
g57
(g58
g59
NtRp3094
(dp3095
g62
(dp3096
g70
I5
ssg71
g3090
sg64
(lp3097
g57
(g66
g59
NtRp3098
(dp3099
g62
(dp3100
g70
I4
ssg71
Nsg64
(lp3101
g57
(g73
g59
NtRp3102
(dp3103
g62
(dp3104
sg71
g3098
sg64
(lp3105
g57
(g78
g59
NtRp3106
(dp3107
g62
(dp3108
g82
g83
ssg71
g3102
sg64
(lp3109
S'Cache-Control'
p3110
asbag57
(g78
g59
NtRp3111
(dp3112
g62
(dp3113
g89
g90
ssg71
g3102
sg64
(lp3114
S':'
asbag57
(g78
g59
NtRp3115
(dp3116
g62
(dp3117
sg71
g3102
sg64
(lp3118
g57
(g58
g59
NtRp3119
(dp3120
g62
(dp3121
g70
I4
ssg71
g3115
sg64
(lp3122
S'no-store, no-cache, must-revalidate, post-check=0, pre-check=0'
p3123
asbasbasbag57
(g73
g59
NtRp3124
(dp3125
g62
(dp3126
sg71
g3098
sg64
(lp3127
g57
(g78
g59
NtRp3128
(dp3129
g62
(dp3130
g82
g83
ssg71
g3124
sg64
(lp3131
S'Content-Type'
p3132
asbag57
(g78
g59
NtRp3133
(dp3134
g62
(dp3135
g89
g90
ssg71
g3124
sg64
(lp3136
S':'
asbag57
(g78
g59
NtRp3137
(dp3138
g62
(dp3139
sg71
g3124
sg64
(lp3140
g57
(g58
g59
NtRp3141
(dp3142
g62
(dp3143
g70
I4
ssg71
g3137
sg64
(lp3144
S'text/html; charset=utf-8'
p3145
asbasbasbag57
(g73
g59
NtRp3146
(dp3147
g62
(dp3148
sg71
g3098
sg64
(lp3149
g57
(g78
g59
NtRp3150
(dp3151
g62
(dp3152
g82
g83
ssg71
g3146
sg64
(lp3153
S'Expires'
p3154
asbag57
(g78
g59
NtRp3155
(dp3156
g62
(dp3157
g89
g90
ssg71
g3146
sg64
(lp3158
S':'
asbag57
(g78
g59
NtRp3159
(dp3160
g62
(dp3161
sg71
g3146
sg64
(lp3162
g57
(g58
g59
NtRp3163
(dp3164
g62
(dp3165
g70
I4
ssg71
g3159
sg64
(lp3166
S'Fri, 11 Jan 2013 11:59:10 GMT'
p3167
asbasbasbag57
(g73
g59
NtRp3168
(dp3169
g62
(dp3170
sg71
g3098
sg64
(lp3171
g57
(g78
g59
NtRp3172
(dp3173
g62
(dp3174
g82
g83
ssg71
g3168
sg64
(lp3175
S'Pragma'
p3176
asbag57
(g78
g59
NtRp3177
(dp3178
g62
(dp3179
g89
g90
ssg71
g3168
sg64
(lp3180
S':'
asbag57
(g78
g59
NtRp3181
(dp3182
g62
(dp3183
sg71
g3168
sg64
(lp3184
g57
(g58
g59
NtRp3185
(dp3186
g62
(dp3187
g70
I4
ssg71
g3181
sg64
(lp3188
S'no-cache'
p3189
asbasbasbag57
(g73
g59
NtRp3190
(dp3191
g62
(dp3192
sg71
g3098
sg64
(lp3193
g57
(g78
g59
NtRp3194
(dp3195
g62
(dp3196
g82
g83
ssg71
g3190
sg64
(lp3197
S'X-Powered-By'
p3198
asbag57
(g78
g59
NtRp3199
(dp3200
g62
(dp3201
g89
g90
ssg71
g3190
sg64
(lp3202
S':'
asbag57
(g78
g59
NtRp3203
(dp3204
g62
(dp3205
sg71
g3190
sg64
(lp3206
g57
(g58
g59
NtRp3207
(dp3208
g62
(dp3209
g70
I4
ssg71
g3203
sg64
(lp3210
S'web2py'
p3211
asbasbasbasbasbasbasbag57
(g73
g59
NtRp3212
(dp3213
g62
(dp3214
sg71
g2721
sg64
(lp3215
g57
(g78
g59
NtRp3216
(dp3217
g62
(dp3218
g82
g83
ssg71
g3212
sg64
(lp3219
S'menu'
p3220
asbag57
(g78
g59
NtRp3221
(dp3222
g62
(dp3223
g89
g90
ssg71
g3212
sg64
(lp3224
S':'
asbag57
(g78
g59
NtRp3225
(dp3226
g62
(dp3227
sg71
g3212
sg64
(lp3228
g57
(g58
g59
NtRp3229
(dp3230
g62
(dp3231
g70
I5
ssg71
g3225
sg64
(lp3232
g57
(g66
g59
NtRp3233
(dp3234
g62
(dp3235
g70
I4
ssg71
Nsg64
(lp3236
sbasbasbasbag57
(g73
g59
NtRp3237
(dp3238
g62
(dp3239
sg71
g2721
sg64
(lp3240
g57
(g78
g59
NtRp3241
(dp3242
g62
(dp3243
g82
g83
ssg71
g3237
sg64
(lp3244
S'meta'
p3245
asbag57
(g78
g59
NtRp3246
(dp3247
g62
(dp3248
g89
g90
ssg71
g3237
sg64
(lp3249
S':'
asbag57
(g78
g59
NtRp3250
(dp3251
g62
(dp3252
sg71
g3237
sg64
(lp3253
g57
(g58
g59
NtRp3254
(dp3255
g62
(dp3256
g70
I5
ssg71
g3250
sg64
(lp3257
g57
(g66
g59
NtRp3258
(dp3259
g62
(dp3260
g70
I4
ssg71
Nsg64
(lp3261
sbasbasbasbag57
(g73
g59
NtRp3262
(dp3263
g62
(dp3264
sg71
g2721
sg64
(lp3265
g57
(g78
g59
NtRp3266
(dp3267
g62
(dp3268
g82
g83
ssg71
g3262
sg64
(lp3269
S'postprocessing'
p3270
asbag57
(g78
g59
NtRp3271
(dp3272
g62
(dp3273
g89
g90
ssg71
g3262
sg64
(lp3274
S':'
asbag57
(g78
g59
NtRp3275
(dp3276
g62
(dp3277
sg71
g3262
sg64
(lp3278
g57
(g58
g59
NtRp3279
(dp3280
g62
(dp3281
g70
I5
ssg71
g3275
sg64
(lp3282
g57
(g66
g59
NtRp3283
(dp3284
g62
(dp3285
g70
I4
ssg71
Nsg64
(lp3286
sbasbasbasbag57
(g73
g59
NtRp3287
(dp3288
g62
(dp3289
sg71
g2721
sg64
(lp3290
g57
(g78
g59
NtRp3291
(dp3292
g62
(dp3293
g82
g83
ssg71
g3287
sg64
(lp3294
S'session_filename'
p3295
asbag57
(g78
g59
NtRp3296
(dp3297
g62
(dp3298
g89
g90
ssg71
g3287
sg64
(lp3299
S':'
asbag57
(g78
g59
NtRp3300
(dp3301
g62
(dp3302
sg71
g3287
sg64
(lp3303
g57
(g58
g59
NtRp3304
(dp3305
g62
(dp3306
g70
I5
ssg71
g3300
sg64
(lp3307
S'C:\\Python27\\web2py\\applications\\Graficos\\sessions\\127.0.0.1-edb77f37-b24e-444d-972c-d22711a7f132'
p3308
asbasbasbag57
(g73
g59
NtRp3309
(dp3310
g62
(dp3311
sg71
g2721
sg64
(lp3312
g57
(g78
g59
NtRp3313
(dp3314
g62
(dp3315
g82
g83
ssg71
g3309
sg64
(lp3316
S'session_id'
p3317
asbag57
(g78
g59
NtRp3318
(dp3319
g62
(dp3320
g89
g90
ssg71
g3309
sg64
(lp3321
S':'
asbag57
(g78
g59
NtRp3322
(dp3323
g62
(dp3324
sg71
g3309
sg64
(lp3325
g57
(g58
g59
NtRp3326
(dp3327
g62
(dp3328
g70
I5
ssg71
g3322
sg64
(lp3329
S'127.0.0.1-edb77f37-b24e-444d-972c-d22711a7f132'
p3330
asbasbasbag57
(g73
g59
NtRp3331
(dp3332
g62
(dp3333
sg71
g2721
sg64
(lp3334
g57
(g78
g59
NtRp3335
(dp3336
g62
(dp3337
g82
g83
ssg71
g3331
sg64
(lp3338
S'session_id_name'
p3339
asbag57
(g78
g59
NtRp3340
(dp3341
g62
(dp3342
g89
g90
ssg71
g3331
sg64
(lp3343
S':'
asbag57
(g78
g59
NtRp3344
(dp3345
g62
(dp3346
sg71
g3331
sg64
(lp3347
g57
(g58
g59
NtRp3348
(dp3349
g62
(dp3350
g70
I5
ssg71
g3344
sg64
(lp3351
g2778
asbasbasbag57
(g73
g59
NtRp3352
(dp3353
g62
(dp3354
sg71
g2721
sg64
(lp3355
g57
(g78
g59
NtRp3356
(dp3357
g62
(dp3358
g82
g83
ssg71
g3352
sg64
(lp3359
S'session_new'
p3360
asbag57
(g78
g59
NtRp3361
(dp3362
g62
(dp3363
g89
g90
ssg71
g3352
sg64
(lp3364
S':'
asbag57
(g78
g59
NtRp3365
(dp3366
g62
(dp3367
sg71
g3352
sg64
(lp3368
g57
(g58
g59
NtRp3369
(dp3370
g62
(dp3371
g70
I5
ssg71
g3365
sg64
(lp3372
g1306
asbasbasbag57
(g73
g59
NtRp3373
(dp3374
g62
(dp3375
sg71
g2721
sg64
(lp3376
g57
(g78
g59
NtRp3377
(dp3378
g62
(dp3379
g82
g83
ssg71
g3373
sg64
(lp3380
S'status'
p3381
asbag57
(g78
g59
NtRp3382
(dp3383
g62
(dp3384
g89
g90
ssg71
g3373
sg64
(lp3385
S':'
asbag57
(g78
g59
NtRp3386
(dp3387
g62
(dp3388
sg71
g3373
sg64
(lp3389
g57
(g58
g59
NtRp3390
(dp3391
g62
(dp3392
g70
I5
ssg71
g3386
sg64
(lp3393
S'200'
p3394
asbasbasbag57
(g73
g59
NtRp3395
(dp3396
g62
(dp3397
sg71
g2721
sg64
(lp3398
g57
(g78
g59
NtRp3399
(dp3400
g62
(dp3401
g82
g83
ssg71
g3395
sg64
(lp3402
g1970
asbag57
(g78
g59
NtRp3403
(dp3404
g62
(dp3405
g89
g90
ssg71
g3395
sg64
(lp3406
S':'
asbag57
(g78
g59
NtRp3407
(dp3408
g62
(dp3409
sg71
g3395
sg64
(lp3410
g57
(g58
g59
NtRp3411
(dp3412
g62
(dp3413
g70
I5
ssg71
g3407
sg64
(lp3414
g1983
asbasbasbag57
(g73
g59
NtRp3415
(dp3416
g62
(dp3417
sg71
g2721
sg64
(lp3418
g57
(g78
g59
NtRp3419
(dp3420
g62
(dp3421
g82
g83
ssg71
g3415
sg64
(lp3422
S'view'
p3423
asbag57
(g78
g59
NtRp3424
(dp3425
g62
(dp3426
g89
g90
ssg71
g3415
sg64
(lp3427
S':'
asbag57
(g78
g59
NtRp3428
(dp3429
g62
(dp3430
sg71
g3415
sg64
(lp3431
g57
(g58
g59
NtRp3432
(dp3433
g62
(dp3434
g70
I5
ssg71
g3428
sg64
(lp3435
S'tela/index.html'
p3436
asbasbasbasbasbsS'locals'
p3437
(dp3438
S'chart1'
p3439
S"'$(function () {\\n    \\n    /*** Get the current ti...h.sin( (t*d-s)*(2*Math.PI)/p ) + c + b;\\n    }\\n});'"
p3440
sssS'traceback'
p3441
S'Traceback (most recent call last):\n  File "C:\\Python27\\web2py\\gluon\\restricted.py", line 205, in restricted\n    exec ccode in environment\n  File "C:\\Python27\\web2py\\applications\\Graficos\\controllers/tela.py", line 86, in <module>\n  File "C:\\Python27\\web2py\\gluon\\globals.py", line 173, in <lambda>\n    self._caller = lambda f: f()\n  File "C:\\Python27\\web2py\\applications\\Graficos\\controllers/tela.py", line 19, in index\n    a = html(chart1, chart2)\nNameError: global name \'chart2\' is not defined\n'
p3442
s.