(dp1
S'output'
p2
S"<type 'exceptions.NameError'> global name 'chart' is not defined"
p3
sS'layer'
p4
S'c:\\python27\\web2py\\applications\\Graficos\\controllers/default.py'
p5
sS'code'
p6
S'# -*- coding: utf-8 -*-\n\nfrom gluon.custom_import import track_changes\ntrack_changes(True)\n\nimport relogio\nimport grafico\n\n\ndef index():\n    \n    #chart1 = grafico.chart(\'column\', \'container01\')\n    chart1 = relogio.clock(\'gauge\', \'container01\')\n    chart2 = chart(\'pie\', \'container10\')\n\n    a = html(chart1, chart2)\n\n    return a\n\n\n\n   \ndef html(strchart1, strchart2):\n\n    largura = 1440\n    altura = 860\n\n    nmlinhas = 2\n    nmcolunas = 2\n\n    largcel = largura / nmcolunas\n    altcel = altura / nmlinhas\n\n\n    strtd = criacolunas(largcel, altcel, 0, strchart1, strchart2, nmcolunas)    \n    \n    trlinha = (TR(strtd,_style=\': 1px; height:\' + str(altcel) + \'px; margin: 0 auto\'), )\n\n    for l in xrange(1,nmlinhas):\n        \n        strtd = criacolunas(largcel, altcel, l, strchart1, strchart2, nmcolunas)\n\n        trlinha = trlinha + (TR(strtd,_style=\': 1px; height:\' + str(altcel) + \'px; margin: 0 auto\'), )\n    \n    tabela = TABLE(trlinha, _border=\'0\')\n\n    html = HTML(\n            HEAD(\n                META(_charset=\'utf-8\'),\n                TITLE("graficos"),\n                META(_name=\'application-name\',_content=\'\'),\n                META(_name=\'google-site-verification\',_content=\'\'),\n                META(_name=\'viewport\',_content=\'width=device-width, initial-scale=1.0, user-scalable=yes\'),\n            SCRIPT(_src=\'/graficos/static/js/jquery.min.js\'),\n            tabela,\n    \n            SCRIPT(_language=\'javascript\', _type=\'text/javascript\')\n            ),\n            BODY(SCRIPT(_src=\'/graficos/static/js/highcharts.js\'), SCRIPT(_src=\'/graficos/static/js/highcharts-more.js\'),_bgcolor=\'FFFFFF\'),\n            #DIV(_id=\'container\', _style=\'width:2px; height: 1px; margin: 1 auto\'),\n             _class=\'no-js\')\n            \n    return html\n\ndef criacolunas(largcel, altcel, nmlinha, strchart1, strchart2, nmcolunas):\n\n    # primeira coluna da tabela\n    colunas = (TD(SCRIPT(XML(strchart1),_type=\'text/javascript\'),\n                _id=\'container\' + str(nmlinha) + \'0\',_style=\'width:\' + str(largcel) + \'px; height: \' + str(altcel) + \'px; margin: 0 auto\'), )\n\n    for c in xrange(1,nmcolunas):\n\n        # adiciona colunas a linha at\xc3\xa9 a quantidade selecionada\n\n        colunas =  colunas + (TD(SCRIPT(XML(strchart2),_type=\'text/javascript\'),\n                              _id=\'container\' + str(nmlinha) + str(c),_style=\'width:\' + str(largcel) + \'px; height: \' + str(altcel) + \'px; margin: 0 auto\'), )\n\n    return colunas\nresponse._vars=response._caller(index)\n'
p7
sS'snapshot'
p8
(dp9
S'exception'
p10
(dp11
S'__hash__'
p12
S"<method-wrapper '__hash__' of exceptions.NameError object>"
p13
sS'__setattr__'
p14
S"<method-wrapper '__setattr__' of exceptions.NameError object>"
p15
sS'__reduce_ex__'
p16
S'<built-in method __reduce_ex__ of exceptions.NameError object>'
p17
sS'__getslice__'
p18
S"<method-wrapper '__getslice__' of exceptions.NameError object>"
p19
sS'__getitem__'
p20
S"<method-wrapper '__getitem__' of exceptions.NameError object>"
p21
sS'__setstate__'
p22
S'<built-in method __setstate__ of exceptions.NameError object>'
p23
sS'__reduce__'
p24
S'<built-in method __reduce__ of exceptions.NameError object>'
p25
sS'__str__'
p26
S"<method-wrapper '__str__' of exceptions.NameError object>"
p27
sS'__format__'
p28
S'<built-in method __format__ of exceptions.NameError object>'
p29
sS'__getattribute__'
p30
S"<method-wrapper '__getattribute__' of exceptions.NameError object>"
p31
sS'__class__'
p32
S"<type 'exceptions.NameError'>"
p33
sS'__unicode__'
p34
S'<built-in method __unicode__ of exceptions.NameError object>'
p35
sS'__delattr__'
p36
S"<method-wrapper '__delattr__' of exceptions.NameError object>"
p37
sS'__subclasshook__'
p38
S'<built-in method __subclasshook__ of type object>'
p39
sS'__repr__'
p40
S"<method-wrapper '__repr__' of exceptions.NameError object>"
p41
sS'args'
p42
S'("global name \'chart\' is not defined",)'
p43
sS'__dict__'
p44
S'{}'
p45
sS'__sizeof__'
p46
S'<built-in method __sizeof__ of exceptions.NameError object>'
p47
sS'__doc__'
p48
S"'Name not found globally.'"
p49
sS'__init__'
p50
S"<method-wrapper '__init__' of exceptions.NameError object>"
p51
sS'__new__'
p52
S'<built-in method __new__ of type object>'
p53
ssS'evalue'
p54
S"global name 'chart' is not defined"
p55
sS'request'
p56
ccopy_reg
_reconstructor
p57
(cgluon.html
BEAUTIFY
p58
c__builtin__
object
p59
NtRp60
(dp61
S'attributes'
p62
(dp63
sS'components'
p64
(lp65
g57
(cgluon.html
TABLE
p66
g59
NtRp67
(dp68
g62
(dp69
S'level'
p70
I5
ssS'parent'
p71
Nsg64
(lp72
g57
(cgluon.html
TR
p73
g59
NtRp74
(dp75
g62
(dp76
sg71
g67
sg64
(lp77
g57
(cgluon.html
TD
p78
g59
NtRp79
(dp80
g62
(dp81
S'_style'
p82
S'font-weight:bold;vertical-align:top'
p83
ssg71
g74
sg64
(lp84
S'ajax'
p85
asbag57
(g78
g59
NtRp86
(dp87
g62
(dp88
S'_valign'
p89
S'top'
p90
ssg71
g74
sg64
(lp91
S':'
asbag57
(g78
g59
NtRp92
(dp93
g62
(dp94
sg71
g74
sg64
(lp95
g57
(g58
g59
NtRp96
(dp97
g62
(dp98
g70
I5
ssg71
g92
sg64
(lp99
S'False'
p100
asbasbasbag57
(g73
g59
NtRp101
(dp102
g62
(dp103
sg71
g67
sg64
(lp104
g57
(g78
g59
NtRp105
(dp106
g62
(dp107
g82
g83
ssg71
g101
sg64
(lp108
S'application'
p109
asbag57
(g78
g59
NtRp110
(dp111
g62
(dp112
g89
g90
ssg71
g101
sg64
(lp113
S':'
asbag57
(g78
g59
NtRp114
(dp115
g62
(dp116
sg71
g101
sg64
(lp117
g57
(g58
g59
NtRp118
(dp119
g62
(dp120
g70
I5
ssg71
g114
sg64
(lp121
S'Graficos'
p122
asbasbasbag57
(g73
g59
NtRp123
(dp124
g62
(dp125
sg71
g67
sg64
(lp126
g57
(g78
g59
NtRp127
(dp128
g62
(dp129
g82
g83
ssg71
g123
sg64
(lp130
g42
asbag57
(g78
g59
NtRp131
(dp132
g62
(dp133
g89
g90
ssg71
g123
sg64
(lp134
S':'
asbag57
(g78
g59
NtRp135
(dp136
g62
(dp137
sg71
g123
sg64
(lp138
g57
(g58
g59
NtRp139
(dp140
g62
(dp141
g70
I5
ssg71
g135
sg64
(lp142
g57
(g66
g59
NtRp143
(dp144
g62
(dp145
g70
I4
ssg71
Nsg64
(lp146
sbasbasbasbag57
(g73
g59
NtRp147
(dp148
g62
(dp149
sg71
g67
sg64
(lp150
g57
(g78
g59
NtRp151
(dp152
g62
(dp153
g82
g83
ssg71
g147
sg64
(lp154
S'body'
p155
asbag57
(g78
g59
NtRp156
(dp157
g62
(dp158
g89
g90
ssg71
g147
sg64
(lp159
S':'
asbag57
(g78
g59
NtRp160
(dp161
g62
(dp162
sg71
g147
sg64
(lp163
g57
(g58
g59
NtRp164
(dp165
g62
(dp166
g70
I5
ssg71
g160
sg64
(lp167
S'<cStringIO.StringO object at 0x08001720>'
p168
asbasbasbag57
(g73
g59
NtRp169
(dp170
g62
(dp171
sg71
g67
sg64
(lp172
g57
(g78
g59
NtRp173
(dp174
g62
(dp175
g82
g83
ssg71
g169
sg64
(lp176
S'client'
p177
asbag57
(g78
g59
NtRp178
(dp179
g62
(dp180
g89
g90
ssg71
g169
sg64
(lp181
S':'
asbag57
(g78
g59
NtRp182
(dp183
g62
(dp184
sg71
g169
sg64
(lp185
g57
(g58
g59
NtRp186
(dp187
g62
(dp188
g70
I5
ssg71
g182
sg64
(lp189
S'127.0.0.1'
p190
asbasbasbag57
(g73
g59
NtRp191
(dp192
g62
(dp193
sg71
g67
sg64
(lp194
g57
(g78
g59
NtRp195
(dp196
g62
(dp197
g82
g83
ssg71
g191
sg64
(lp198
S'controller'
p199
asbag57
(g78
g59
NtRp200
(dp201
g62
(dp202
g89
g90
ssg71
g191
sg64
(lp203
S':'
asbag57
(g78
g59
NtRp204
(dp205
g62
(dp206
sg71
g191
sg64
(lp207
g57
(g58
g59
NtRp208
(dp209
g62
(dp210
g70
I5
ssg71
g204
sg64
(lp211
S'default'
p212
asbasbasbag57
(g73
g59
NtRp213
(dp214
g62
(dp215
sg71
g67
sg64
(lp216
g57
(g78
g59
NtRp217
(dp218
g62
(dp219
g82
g83
ssg71
g213
sg64
(lp220
S'cookies'
p221
asbag57
(g78
g59
NtRp222
(dp223
g62
(dp224
g89
g90
ssg71
g213
sg64
(lp225
S':'
asbag57
(g78
g59
NtRp226
(dp227
g62
(dp228
sg71
g213
sg64
(lp229
g57
(g58
g59
NtRp230
(dp231
g62
(dp232
g70
I5
ssg71
g226
sg64
(lp233
g57
(g66
g59
NtRp234
(dp235
g62
(dp236
g70
I4
ssg71
Nsg64
(lp237
sbasbasbasbag57
(g73
g59
NtRp238
(dp239
g62
(dp240
sg71
g67
sg64
(lp241
g57
(g78
g59
NtRp242
(dp243
g62
(dp244
g82
g83
ssg71
g238
sg64
(lp245
S'env'
p246
asbag57
(g78
g59
NtRp247
(dp248
g62
(dp249
g89
g90
ssg71
g238
sg64
(lp250
S':'
asbag57
(g78
g59
NtRp251
(dp252
g62
(dp253
sg71
g238
sg64
(lp254
g57
(g58
g59
NtRp255
(dp256
g62
(dp257
g70
I5
ssg71
g251
sg64
(lp258
g57
(g66
g59
NtRp259
(dp260
g62
(dp261
g70
I4
ssg71
Nsg64
(lp262
g57
(g73
g59
NtRp263
(dp264
g62
(dp265
sg71
g259
sg64
(lp266
g57
(g78
g59
NtRp267
(dp268
g62
(dp269
g82
g83
ssg71
g263
sg64
(lp270
S'app_folders'
p271
asbag57
(g78
g59
NtRp272
(dp273
g62
(dp274
g89
g90
ssg71
g263
sg64
(lp275
S':'
asbag57
(g78
g59
NtRp276
(dp277
g62
(dp278
sg71
g263
sg64
(lp279
g57
(g58
g59
NtRp280
(dp281
g62
(dp282
g70
I4
ssg71
g276
sg64
(lp283
S"set(['c:\\\\python27\\\\web2py\\\\applications\\\\admin\\\\', 'c:\\\\python27\\\\web2py\\\\applications\\\\welcome\\\\', 'c:\\\\python27\\\\web2py\\\\applications\\\\Graficos\\\\', 'c:\\\\python27\\\\web2py\\\\applications\\\\relogio\\\\'])"
p284
asbasbasbag57
(g73
g59
NtRp285
(dp286
g62
(dp287
sg71
g259
sg64
(lp288
g57
(g78
g59
NtRp289
(dp290
g62
(dp291
g82
g83
ssg71
g285
sg64
(lp292
S'applications_parent'
p293
asbag57
(g78
g59
NtRp294
(dp295
g62
(dp296
g89
g90
ssg71
g285
sg64
(lp297
S':'
asbag57
(g78
g59
NtRp298
(dp299
g62
(dp300
sg71
g285
sg64
(lp301
g57
(g58
g59
NtRp302
(dp303
g62
(dp304
g70
I4
ssg71
g298
sg64
(lp305
S'c:\\python27\\web2py'
p306
asbasbasbag57
(g73
g59
NtRp307
(dp308
g62
(dp309
sg71
g259
sg64
(lp310
g57
(g78
g59
NtRp311
(dp312
g62
(dp313
g82
g83
ssg71
g307
sg64
(lp314
S'cmd_args'
p315
asbag57
(g78
g59
NtRp316
(dp317
g62
(dp318
g89
g90
ssg71
g307
sg64
(lp319
S':'
asbag57
(g78
g59
NtRp320
(dp321
g62
(dp322
sg71
g307
sg64
(lp323
g57
(g58
g59
NtRp324
(dp325
g62
(dp326
g70
I4
ssg71
g320
sg64
(lp327
g57
(g66
g59
NtRp328
(dp329
g62
(dp330
g70
I3
ssg71
Nsg64
(lp331
sbasbasbasbag57
(g73
g59
NtRp332
(dp333
g62
(dp334
sg71
g259
sg64
(lp335
g57
(g78
g59
NtRp336
(dp337
g62
(dp338
g82
g83
ssg71
g332
sg64
(lp339
S'cmd_options'
p340
asbag57
(g78
g59
NtRp341
(dp342
g62
(dp343
g89
g90
ssg71
g332
sg64
(lp344
S':'
asbag57
(g78
g59
NtRp345
(dp346
g62
(dp347
sg71
g332
sg64
(lp348
g57
(g58
g59
NtRp349
(dp350
g62
(dp351
g70
I4
ssg71
g345
sg64
(lp352
S"<Values at 0x3bb5a30: {'verbose': False, 'ip': '127.0.0.1', 'shutdown_timeout': 5, 'taskbar': False, 'nocron': False, 'pid_filename': 'httpserver.pid', 'maxthreads': None, 'softcron': False, 'server_name': 'VSWKS071', 'bpython': False, 'nogui': False, 'port': 8000, 'extcron': False, 'debuglevel': 30, 'test': None, 'folder': 'c:\\\\python27\\\\web2py', 'config': '', 'import_models': False, 'winservice': '', 'shell': None, 'run': '', 'log_filename': 'httpserver.log', 'args': [''], 'socket_timeout': 5, 'ssl_ca_certificate': None, 'scheduler': None, 'profiler_filename': None, 'ssl_private_key': '', 'password': '<ask>', 'request_queue_size': 5, 'ssl_certificate': '', 'cronjob': False, 'numthreads': None, 'quiet': False, 'interfaces': None, 'minthreads': None, 'timeout': 10, 'plain': False, 'nobanner': False}>"
p353
asbasbasbag57
(g73
g59
NtRp354
(dp355
g62
(dp356
sg71
g259
sg64
(lp357
g57
(g78
g59
NtRp358
(dp359
g62
(dp360
g82
g83
ssg71
g354
sg64
(lp361
S'db_sessions'
p362
asbag57
(g78
g59
NtRp363
(dp364
g62
(dp365
g89
g90
ssg71
g354
sg64
(lp366
S':'
asbag57
(g78
g59
NtRp367
(dp368
g62
(dp369
sg71
g354
sg64
(lp370
g57
(g58
g59
NtRp371
(dp372
g62
(dp373
g70
I4
ssg71
g367
sg64
(lp374
S'set([])'
p375
asbasbasbag57
(g73
g59
NtRp376
(dp377
g62
(dp378
sg71
g259
sg64
(lp379
g57
(g78
g59
NtRp380
(dp381
g62
(dp382
g82
g83
ssg71
g376
sg64
(lp383
S'debugging'
p384
asbag57
(g78
g59
NtRp385
(dp386
g62
(dp387
g89
g90
ssg71
g376
sg64
(lp388
S':'
asbag57
(g78
g59
NtRp389
(dp390
g62
(dp391
sg71
g376
sg64
(lp392
g57
(g58
g59
NtRp393
(dp394
g62
(dp395
g70
I4
ssg71
g389
sg64
(lp396
g100
asbasbasbag57
(g73
g59
NtRp397
(dp398
g62
(dp399
sg71
g259
sg64
(lp400
g57
(g78
g59
NtRp401
(dp402
g62
(dp403
g82
g83
ssg71
g397
sg64
(lp404
S'gluon_parent'
p405
asbag57
(g78
g59
NtRp406
(dp407
g62
(dp408
g89
g90
ssg71
g397
sg64
(lp409
S':'
asbag57
(g78
g59
NtRp410
(dp411
g62
(dp412
sg71
g397
sg64
(lp413
g57
(g58
g59
NtRp414
(dp415
g62
(dp416
g70
I4
ssg71
g410
sg64
(lp417
S'c:\\python27\\web2py'
p418
asbasbasbag57
(g73
g59
NtRp419
(dp420
g62
(dp421
sg71
g259
sg64
(lp422
g57
(g78
g59
NtRp423
(dp424
g62
(dp425
g82
g83
ssg71
g419
sg64
(lp426
S'http_accept'
p427
asbag57
(g78
g59
NtRp428
(dp429
g62
(dp430
g89
g90
ssg71
g419
sg64
(lp431
S':'
asbag57
(g78
g59
NtRp432
(dp433
g62
(dp434
sg71
g419
sg64
(lp435
g57
(g58
g59
NtRp436
(dp437
g62
(dp438
g70
I4
ssg71
g432
sg64
(lp439
S'text/html,application/xhtml+xml,application/xml;q=0.9,*/*;q=0.8'
p440
asbasbasbag57
(g73
g59
NtRp441
(dp442
g62
(dp443
sg71
g259
sg64
(lp444
g57
(g78
g59
NtRp445
(dp446
g62
(dp447
g82
g83
ssg71
g441
sg64
(lp448
S'http_accept_encoding'
p449
asbag57
(g78
g59
NtRp450
(dp451
g62
(dp452
g89
g90
ssg71
g441
sg64
(lp453
S':'
asbag57
(g78
g59
NtRp454
(dp455
g62
(dp456
sg71
g441
sg64
(lp457
g57
(g58
g59
NtRp458
(dp459
g62
(dp460
g70
I4
ssg71
g454
sg64
(lp461
S'gzip, deflate'
p462
asbasbasbag57
(g73
g59
NtRp463
(dp464
g62
(dp465
sg71
g259
sg64
(lp466
g57
(g78
g59
NtRp467
(dp468
g62
(dp469
g82
g83
ssg71
g463
sg64
(lp470
S'http_accept_language'
p471
asbag57
(g78
g59
NtRp472
(dp473
g62
(dp474
g89
g90
ssg71
g463
sg64
(lp475
S':'
asbag57
(g78
g59
NtRp476
(dp477
g62
(dp478
sg71
g463
sg64
(lp479
g57
(g58
g59
NtRp480
(dp481
g62
(dp482
g70
I4
ssg71
g476
sg64
(lp483
S'pt-BR,pt;q=0.8,en-US;q=0.5,en;q=0.3'
p484
asbasbasbag57
(g73
g59
NtRp485
(dp486
g62
(dp487
sg71
g259
sg64
(lp488
g57
(g78
g59
NtRp489
(dp490
g62
(dp491
g82
g83
ssg71
g485
sg64
(lp492
S'http_connection'
p493
asbag57
(g78
g59
NtRp494
(dp495
g62
(dp496
g89
g90
ssg71
g485
sg64
(lp497
S':'
asbag57
(g78
g59
NtRp498
(dp499
g62
(dp500
sg71
g485
sg64
(lp501
g57
(g58
g59
NtRp502
(dp503
g62
(dp504
g70
I4
ssg71
g498
sg64
(lp505
S'keep-alive'
p506
asbasbasbag57
(g73
g59
NtRp507
(dp508
g62
(dp509
sg71
g259
sg64
(lp510
g57
(g78
g59
NtRp511
(dp512
g62
(dp513
g82
g83
ssg71
g507
sg64
(lp514
S'http_host'
p515
asbag57
(g78
g59
NtRp516
(dp517
g62
(dp518
g89
g90
ssg71
g507
sg64
(lp519
S':'
asbag57
(g78
g59
NtRp520
(dp521
g62
(dp522
sg71
g507
sg64
(lp523
g57
(g58
g59
NtRp524
(dp525
g62
(dp526
g70
I4
ssg71
g520
sg64
(lp527
S'127.0.0.1:8000'
p528
asbasbasbag57
(g73
g59
NtRp529
(dp530
g62
(dp531
sg71
g259
sg64
(lp532
g57
(g78
g59
NtRp533
(dp534
g62
(dp535
g82
g83
ssg71
g529
sg64
(lp536
S'http_user_agent'
p537
asbag57
(g78
g59
NtRp538
(dp539
g62
(dp540
g89
g90
ssg71
g529
sg64
(lp541
S':'
asbag57
(g78
g59
NtRp542
(dp543
g62
(dp544
sg71
g529
sg64
(lp545
g57
(g58
g59
NtRp546
(dp547
g62
(dp548
g70
I4
ssg71
g542
sg64
(lp549
S'Mozilla/5.0 (Windows NT 6.1; WOW64; rv:16.0) Gecko/20100101 Firefox/16.0'
p550
asbasbasbag57
(g73
g59
NtRp551
(dp552
g62
(dp553
sg71
g259
sg64
(lp554
g57
(g78
g59
NtRp555
(dp556
g62
(dp557
g82
g83
ssg71
g551
sg64
(lp558
S'is_jython'
p559
asbag57
(g78
g59
NtRp560
(dp561
g62
(dp562
g89
g90
ssg71
g551
sg64
(lp563
S':'
asbag57
(g78
g59
NtRp564
(dp565
g62
(dp566
sg71
g551
sg64
(lp567
g57
(g58
g59
NtRp568
(dp569
g62
(dp570
g70
I4
ssg71
g564
sg64
(lp571
g100
asbasbasbag57
(g73
g59
NtRp572
(dp573
g62
(dp574
sg71
g259
sg64
(lp575
g57
(g78
g59
NtRp576
(dp577
g62
(dp578
g82
g83
ssg71
g572
sg64
(lp579
S'is_pypy'
p580
asbag57
(g78
g59
NtRp581
(dp582
g62
(dp583
g89
g90
ssg71
g572
sg64
(lp584
S':'
asbag57
(g78
g59
NtRp585
(dp586
g62
(dp587
sg71
g572
sg64
(lp588
g57
(g58
g59
NtRp589
(dp590
g62
(dp591
g70
I4
ssg71
g585
sg64
(lp592
g100
asbasbasbag57
(g73
g59
NtRp593
(dp594
g62
(dp595
sg71
g259
sg64
(lp596
g57
(g78
g59
NtRp597
(dp598
g62
(dp599
g82
g83
ssg71
g593
sg64
(lp600
S'path_info'
p601
asbag57
(g78
g59
NtRp602
(dp603
g62
(dp604
g89
g90
ssg71
g593
sg64
(lp605
S':'
asbag57
(g78
g59
NtRp606
(dp607
g62
(dp608
sg71
g593
sg64
(lp609
g57
(g58
g59
NtRp610
(dp611
g62
(dp612
g70
I4
ssg71
g606
sg64
(lp613
S'/Graficos/default/index'
p614
asbasbasbag57
(g73
g59
NtRp615
(dp616
g62
(dp617
sg71
g259
sg64
(lp618
g57
(g78
g59
NtRp619
(dp620
g62
(dp621
g82
g83
ssg71
g615
sg64
(lp622
S'query_string'
p623
asbag57
(g78
g59
NtRp624
(dp625
g62
(dp626
g89
g90
ssg71
g615
sg64
(lp627
S':'
asbag57
(g78
g59
NtRp628
(dp629
g62
(dp630
sg71
g615
sg64
(lp631
g57
(g58
g59
NtRp632
(dp633
g62
(dp634
g70
I4
ssg71
g628
sg64
(lp635
S''
asbasbasbag57
(g73
g59
NtRp636
(dp637
g62
(dp638
sg71
g259
sg64
(lp639
g57
(g78
g59
NtRp640
(dp641
g62
(dp642
g82
g83
ssg71
g636
sg64
(lp643
S'remote_addr'
p644
asbag57
(g78
g59
NtRp645
(dp646
g62
(dp647
g89
g90
ssg71
g636
sg64
(lp648
S':'
asbag57
(g78
g59
NtRp649
(dp650
g62
(dp651
sg71
g636
sg64
(lp652
g57
(g58
g59
NtRp653
(dp654
g62
(dp655
g70
I4
ssg71
g649
sg64
(lp656
g190
asbasbasbag57
(g73
g59
NtRp657
(dp658
g62
(dp659
sg71
g259
sg64
(lp660
g57
(g78
g59
NtRp661
(dp662
g62
(dp663
g82
g83
ssg71
g657
sg64
(lp664
S'remote_port'
p665
asbag57
(g78
g59
NtRp666
(dp667
g62
(dp668
g89
g90
ssg71
g657
sg64
(lp669
S':'
asbag57
(g78
g59
NtRp670
(dp671
g62
(dp672
sg71
g657
sg64
(lp673
g57
(g58
g59
NtRp674
(dp675
g62
(dp676
g70
I4
ssg71
g670
sg64
(lp677
S'60752'
p678
asbasbasbag57
(g73
g59
NtRp679
(dp680
g62
(dp681
sg71
g259
sg64
(lp682
g57
(g78
g59
NtRp683
(dp684
g62
(dp685
g82
g83
ssg71
g679
sg64
(lp686
S'request_method'
p687
asbag57
(g78
g59
NtRp688
(dp689
g62
(dp690
g89
g90
ssg71
g679
sg64
(lp691
S':'
asbag57
(g78
g59
NtRp692
(dp693
g62
(dp694
sg71
g679
sg64
(lp695
g57
(g58
g59
NtRp696
(dp697
g62
(dp698
g70
I4
ssg71
g692
sg64
(lp699
S'GET'
p700
asbasbasbag57
(g73
g59
NtRp701
(dp702
g62
(dp703
sg71
g259
sg64
(lp704
g57
(g78
g59
NtRp705
(dp706
g62
(dp707
g82
g83
ssg71
g701
sg64
(lp708
S'script_name'
p709
asbag57
(g78
g59
NtRp710
(dp711
g62
(dp712
g89
g90
ssg71
g701
sg64
(lp713
S':'
asbag57
(g78
g59
NtRp714
(dp715
g62
(dp716
sg71
g701
sg64
(lp717
g57
(g58
g59
NtRp718
(dp719
g62
(dp720
g70
I4
ssg71
g714
sg64
(lp721
S''
asbasbasbag57
(g73
g59
NtRp722
(dp723
g62
(dp724
sg71
g259
sg64
(lp725
g57
(g78
g59
NtRp726
(dp727
g62
(dp728
g82
g83
ssg71
g722
sg64
(lp729
S'server_name'
p730
asbag57
(g78
g59
NtRp731
(dp732
g62
(dp733
g89
g90
ssg71
g722
sg64
(lp734
S':'
asbag57
(g78
g59
NtRp735
(dp736
g62
(dp737
sg71
g722
sg64
(lp738
g57
(g58
g59
NtRp739
(dp740
g62
(dp741
g70
I4
ssg71
g735
sg64
(lp742
S'VSWKS071'
p743
asbasbasbag57
(g73
g59
NtRp744
(dp745
g62
(dp746
sg71
g259
sg64
(lp747
g57
(g78
g59
NtRp748
(dp749
g62
(dp750
g82
g83
ssg71
g744
sg64
(lp751
S'server_port'
p752
asbag57
(g78
g59
NtRp753
(dp754
g62
(dp755
g89
g90
ssg71
g744
sg64
(lp756
S':'
asbag57
(g78
g59
NtRp757
(dp758
g62
(dp759
sg71
g744
sg64
(lp760
g57
(g58
g59
NtRp761
(dp762
g62
(dp763
g70
I4
ssg71
g757
sg64
(lp764
S'8000'
p765
asbasbasbag57
(g73
g59
NtRp766
(dp767
g62
(dp768
sg71
g259
sg64
(lp769
g57
(g78
g59
NtRp770
(dp771
g62
(dp772
g82
g83
ssg71
g766
sg64
(lp773
S'server_protocol'
p774
asbag57
(g78
g59
NtRp775
(dp776
g62
(dp777
g89
g90
ssg71
g766
sg64
(lp778
S':'
asbag57
(g78
g59
NtRp779
(dp780
g62
(dp781
sg71
g766
sg64
(lp782
g57
(g58
g59
NtRp783
(dp784
g62
(dp785
g70
I4
ssg71
g779
sg64
(lp786
S'HTTP/1.1'
p787
asbasbasbag57
(g73
g59
NtRp788
(dp789
g62
(dp790
sg71
g259
sg64
(lp791
g57
(g78
g59
NtRp792
(dp793
g62
(dp794
g82
g83
ssg71
g788
sg64
(lp795
S'server_software'
p796
asbag57
(g78
g59
NtRp797
(dp798
g62
(dp799
g89
g90
ssg71
g788
sg64
(lp800
S':'
asbag57
(g78
g59
NtRp801
(dp802
g62
(dp803
sg71
g788
sg64
(lp804
g57
(g58
g59
NtRp805
(dp806
g62
(dp807
g70
I4
ssg71
g801
sg64
(lp808
S'Rocket 1.2.4'
p809
asbasbasbag57
(g73
g59
NtRp810
(dp811
g62
(dp812
sg71
g259
sg64
(lp813
g57
(g78
g59
NtRp814
(dp815
g62
(dp816
g82
g83
ssg71
g810
sg64
(lp817
S'web2py_crontype'
p818
asbag57
(g78
g59
NtRp819
(dp820
g62
(dp821
g89
g90
ssg71
g810
sg64
(lp822
S':'
asbag57
(g78
g59
NtRp823
(dp824
g62
(dp825
sg71
g810
sg64
(lp826
g57
(g58
g59
NtRp827
(dp828
g62
(dp829
g70
I4
ssg71
g823
sg64
(lp830
S'hard'
p831
asbasbasbag57
(g73
g59
NtRp832
(dp833
g62
(dp834
sg71
g259
sg64
(lp835
g57
(g78
g59
NtRp836
(dp837
g62
(dp838
g82
g83
ssg71
g832
sg64
(lp839
S'web2py_path'
p840
asbag57
(g78
g59
NtRp841
(dp842
g62
(dp843
g89
g90
ssg71
g832
sg64
(lp844
S':'
asbag57
(g78
g59
NtRp845
(dp846
g62
(dp847
sg71
g832
sg64
(lp848
g57
(g58
g59
NtRp849
(dp850
g62
(dp851
g70
I4
ssg71
g845
sg64
(lp852
g306
asbasbasbag57
(g73
g59
NtRp853
(dp854
g62
(dp855
sg71
g259
sg64
(lp856
g57
(g78
g59
NtRp857
(dp858
g62
(dp859
g82
g83
ssg71
g853
sg64
(lp860
S'web2py_version'
p861
asbag57
(g78
g59
NtRp862
(dp863
g62
(dp864
g89
g90
ssg71
g853
sg64
(lp865
S':'
asbag57
(g78
g59
NtRp866
(dp867
g62
(dp868
sg71
g853
sg64
(lp869
g57
(g58
g59
NtRp870
(dp871
g62
(dp872
g70
I4
ssg71
g866
sg64
(lp873
g57
(g66
g59
NtRp874
(dp875
g62
(dp876
g70
I3
ssg71
Nsg64
(lp877
g57
(g73
g59
NtRp878
(dp879
g62
(dp880
sg71
g874
sg64
(lp881
g57
(g78
g59
NtRp882
(dp883
g62
(dp884
sg71
g878
sg64
(lp885
g57
(g58
g59
NtRp886
(dp887
g62
(dp888
g70
I3
ssg71
g882
sg64
(lp889
S'1'
asbasbasbag57
(g73
g59
NtRp890
(dp891
g62
(dp892
sg71
g874
sg64
(lp893
g57
(g78
g59
NtRp894
(dp895
g62
(dp896
sg71
g890
sg64
(lp897
g57
(g58
g59
NtRp898
(dp899
g62
(dp900
g70
I3
ssg71
g894
sg64
(lp901
S'99'
p902
asbasbasbag57
(g73
g59
NtRp903
(dp904
g62
(dp905
sg71
g874
sg64
(lp906
g57
(g78
g59
NtRp907
(dp908
g62
(dp909
sg71
g903
sg64
(lp910
g57
(g58
g59
NtRp911
(dp912
g62
(dp913
g70
I3
ssg71
g907
sg64
(lp914
S'7'
asbasbasbag57
(g73
g59
NtRp915
(dp916
g62
(dp917
sg71
g874
sg64
(lp918
g57
(g78
g59
NtRp919
(dp920
g62
(dp921
sg71
g915
sg64
(lp922
g57
(g58
g59
NtRp923
(dp924
g62
(dp925
g70
I3
ssg71
g919
sg64
(lp926
S'datetime.datetime(2012, 3, 4, 22, 12, 8)'
p927
asbasbasbag57
(g73
g59
NtRp928
(dp929
g62
(dp930
sg71
g874
sg64
(lp931
g57
(g78
g59
NtRp932
(dp933
g62
(dp934
sg71
g928
sg64
(lp935
g57
(g58
g59
NtRp936
(dp937
g62
(dp938
g70
I3
ssg71
g932
sg64
(lp939
S'stable'
p940
asbasbasbasbasbasbasbag57
(g73
g59
NtRp941
(dp942
g62
(dp943
sg71
g259
sg64
(lp944
g57
(g78
g59
NtRp945
(dp946
g62
(dp947
g82
g83
ssg71
g941
sg64
(lp948
S'wsgi_errors'
p949
asbag57
(g78
g59
NtRp950
(dp951
g62
(dp952
g89
g90
ssg71
g941
sg64
(lp953
S':'
asbag57
(g78
g59
NtRp954
(dp955
g62
(dp956
sg71
g941
sg64
(lp957
g57
(g58
g59
NtRp958
(dp959
g62
(dp960
g70
I4
ssg71
g954
sg64
(lp961
S"<open file '<stderr>', mode 'w' at 0x005E50D0>"
p962
asbasbasbag57
(g73
g59
NtRp963
(dp964
g62
(dp965
sg71
g259
sg64
(lp966
g57
(g78
g59
NtRp967
(dp968
g62
(dp969
g82
g83
ssg71
g963
sg64
(lp970
S'wsgi_file_wrapper'
p971
asbag57
(g78
g59
NtRp972
(dp973
g62
(dp974
g89
g90
ssg71
g963
sg64
(lp975
S':'
asbag57
(g78
g59
NtRp976
(dp977
g62
(dp978
sg71
g963
sg64
(lp979
g57
(g58
g59
NtRp980
(dp981
g62
(dp982
g70
I4
ssg71
g976
sg64
(lp983
S'<class wsgiref.util.FileWrapper at 0x03AF0CE0>'
p984
asbasbasbag57
(g73
g59
NtRp985
(dp986
g62
(dp987
sg71
g259
sg64
(lp988
g57
(g78
g59
NtRp989
(dp990
g62
(dp991
g82
g83
ssg71
g985
sg64
(lp992
S'wsgi_input'
p993
asbag57
(g78
g59
NtRp994
(dp995
g62
(dp996
g89
g90
ssg71
g985
sg64
(lp997
S':'
asbag57
(g78
g59
NtRp998
(dp999
g62
(dp1000
sg71
g985
sg64
(lp1001
g57
(g58
g59
NtRp1002
(dp1003
g62
(dp1004
g70
I4
ssg71
g998
sg64
(lp1005
S'<socket._fileobject object at 0x080958B0>'
p1006
asbasbasbag57
(g73
g59
NtRp1007
(dp1008
g62
(dp1009
sg71
g259
sg64
(lp1010
g57
(g78
g59
NtRp1011
(dp1012
g62
(dp1013
g82
g83
ssg71
g1007
sg64
(lp1014
S'wsgi_multiprocess'
p1015
asbag57
(g78
g59
NtRp1016
(dp1017
g62
(dp1018
g89
g90
ssg71
g1007
sg64
(lp1019
S':'
asbag57
(g78
g59
NtRp1020
(dp1021
g62
(dp1022
sg71
g1007
sg64
(lp1023
g57
(g58
g59
NtRp1024
(dp1025
g62
(dp1026
g70
I4
ssg71
g1020
sg64
(lp1027
g100
asbasbasbag57
(g73
g59
NtRp1028
(dp1029
g62
(dp1030
sg71
g259
sg64
(lp1031
g57
(g78
g59
NtRp1032
(dp1033
g62
(dp1034
g82
g83
ssg71
g1028
sg64
(lp1035
S'wsgi_multithread'
p1036
asbag57
(g78
g59
NtRp1037
(dp1038
g62
(dp1039
g89
g90
ssg71
g1028
sg64
(lp1040
S':'
asbag57
(g78
g59
NtRp1041
(dp1042
g62
(dp1043
sg71
g1028
sg64
(lp1044
g57
(g58
g59
NtRp1045
(dp1046
g62
(dp1047
g70
I4
ssg71
g1041
sg64
(lp1048
S'True'
p1049
asbasbasbag57
(g73
g59
NtRp1050
(dp1051
g62
(dp1052
sg71
g259
sg64
(lp1053
g57
(g78
g59
NtRp1054
(dp1055
g62
(dp1056
g82
g83
ssg71
g1050
sg64
(lp1057
S'wsgi_run_once'
p1058
asbag57
(g78
g59
NtRp1059
(dp1060
g62
(dp1061
g89
g90
ssg71
g1050
sg64
(lp1062
S':'
asbag57
(g78
g59
NtRp1063
(dp1064
g62
(dp1065
sg71
g1050
sg64
(lp1066
g57
(g58
g59
NtRp1067
(dp1068
g62
(dp1069
g70
I4
ssg71
g1063
sg64
(lp1070
g100
asbasbasbag57
(g73
g59
NtRp1071
(dp1072
g62
(dp1073
sg71
g259
sg64
(lp1074
g57
(g78
g59
NtRp1075
(dp1076
g62
(dp1077
g82
g83
ssg71
g1071
sg64
(lp1078
S'wsgi_url_scheme'
p1079
asbag57
(g78
g59
NtRp1080
(dp1081
g62
(dp1082
g89
g90
ssg71
g1071
sg64
(lp1083
S':'
asbag57
(g78
g59
NtRp1084
(dp1085
g62
(dp1086
sg71
g1071
sg64
(lp1087
g57
(g58
g59
NtRp1088
(dp1089
g62
(dp1090
g70
I4
ssg71
g1084
sg64
(lp1091
S'http'
p1092
asbasbasbag57
(g73
g59
NtRp1093
(dp1094
g62
(dp1095
sg71
g259
sg64
(lp1096
g57
(g78
g59
NtRp1097
(dp1098
g62
(dp1099
g82
g83
ssg71
g1093
sg64
(lp1100
S'wsgi_version'
p1101
asbag57
(g78
g59
NtRp1102
(dp1103
g62
(dp1104
g89
g90
ssg71
g1093
sg64
(lp1105
S':'
asbag57
(g78
g59
NtRp1106
(dp1107
g62
(dp1108
sg71
g1093
sg64
(lp1109
g57
(g58
g59
NtRp1110
(dp1111
g62
(dp1112
g70
I4
ssg71
g1106
sg64
(lp1113
g57
(g66
g59
NtRp1114
(dp1115
g62
(dp1116
g70
I3
ssg71
Nsg64
(lp1117
g57
(g73
g59
NtRp1118
(dp1119
g62
(dp1120
sg71
g1114
sg64
(lp1121
g57
(g78
g59
NtRp1122
(dp1123
g62
(dp1124
sg71
g1118
sg64
(lp1125
g57
(g58
g59
NtRp1126
(dp1127
g62
(dp1128
g70
I3
ssg71
g1122
sg64
(lp1129
S'1'
asbasbasbag57
(g73
g59
NtRp1130
(dp1131
g62
(dp1132
sg71
g1114
sg64
(lp1133
g57
(g78
g59
NtRp1134
(dp1135
g62
(dp1136
sg71
g1130
sg64
(lp1137
g57
(g58
g59
NtRp1138
(dp1139
g62
(dp1140
g70
I3
ssg71
g1134
sg64
(lp1141
S'0'
asbasbasbasbasbasbasbasbasbasbasbag57
(g73
g59
NtRp1142
(dp1143
g62
(dp1144
sg71
g67
sg64
(lp1145
g57
(g78
g59
NtRp1146
(dp1147
g62
(dp1148
g82
g83
ssg71
g1142
sg64
(lp1149
S'extension'
p1150
asbag57
(g78
g59
NtRp1151
(dp1152
g62
(dp1153
g89
g90
ssg71
g1142
sg64
(lp1154
S':'
asbag57
(g78
g59
NtRp1155
(dp1156
g62
(dp1157
sg71
g1142
sg64
(lp1158
g57
(g58
g59
NtRp1159
(dp1160
g62
(dp1161
g70
I5
ssg71
g1155
sg64
(lp1162
S'html'
p1163
asbasbasbag57
(g73
g59
NtRp1164
(dp1165
g62
(dp1166
sg71
g67
sg64
(lp1167
g57
(g78
g59
NtRp1168
(dp1169
g62
(dp1170
g82
g83
ssg71
g1164
sg64
(lp1171
S'folder'
p1172
asbag57
(g78
g59
NtRp1173
(dp1174
g62
(dp1175
g89
g90
ssg71
g1164
sg64
(lp1176
S':'
asbag57
(g78
g59
NtRp1177
(dp1178
g62
(dp1179
sg71
g1164
sg64
(lp1180
g57
(g58
g59
NtRp1181
(dp1182
g62
(dp1183
g70
I5
ssg71
g1177
sg64
(lp1184
S'c:\\python27\\web2py\\applications\\Graficos\\'
p1185
asbasbasbag57
(g73
g59
NtRp1186
(dp1187
g62
(dp1188
sg71
g67
sg64
(lp1189
g57
(g78
g59
NtRp1190
(dp1191
g62
(dp1192
g82
g83
ssg71
g1186
sg64
(lp1193
S'function'
p1194
asbag57
(g78
g59
NtRp1195
(dp1196
g62
(dp1197
g89
g90
ssg71
g1186
sg64
(lp1198
S':'
asbag57
(g78
g59
NtRp1199
(dp1200
g62
(dp1201
sg71
g1186
sg64
(lp1202
g57
(g58
g59
NtRp1203
(dp1204
g62
(dp1205
g70
I5
ssg71
g1199
sg64
(lp1206
S'index'
p1207
asbasbasbag57
(g73
g59
NtRp1208
(dp1209
g62
(dp1210
sg71
g67
sg64
(lp1211
g57
(g78
g59
NtRp1212
(dp1213
g62
(dp1214
g82
g83
ssg71
g1208
sg64
(lp1215
S'get_vars'
p1216
asbag57
(g78
g59
NtRp1217
(dp1218
g62
(dp1219
g89
g90
ssg71
g1208
sg64
(lp1220
S':'
asbag57
(g78
g59
NtRp1221
(dp1222
g62
(dp1223
sg71
g1208
sg64
(lp1224
g57
(g58
g59
NtRp1225
(dp1226
g62
(dp1227
g70
I5
ssg71
g1221
sg64
(lp1228
g57
(g66
g59
NtRp1229
(dp1230
g62
(dp1231
g70
I4
ssg71
Nsg64
(lp1232
sbasbasbasbag57
(g73
g59
NtRp1233
(dp1234
g62
(dp1235
sg71
g67
sg64
(lp1236
g57
(g78
g59
NtRp1237
(dp1238
g62
(dp1239
g82
g83
ssg71
g1233
sg64
(lp1240
S'global_settings'
p1241
asbag57
(g78
g59
NtRp1242
(dp1243
g62
(dp1244
g89
g90
ssg71
g1233
sg64
(lp1245
S':'
asbag57
(g78
g59
NtRp1246
(dp1247
g62
(dp1248
sg71
g1233
sg64
(lp1249
g57
(g58
g59
NtRp1250
(dp1251
g62
(dp1252
g70
I5
ssg71
g1246
sg64
(lp1253
g57
(g66
g59
NtRp1254
(dp1255
g62
(dp1256
g70
I4
ssg71
Nsg64
(lp1257
g57
(g73
g59
NtRp1258
(dp1259
g62
(dp1260
sg71
g1254
sg64
(lp1261
g57
(g78
g59
NtRp1262
(dp1263
g62
(dp1264
g82
g83
ssg71
g1258
sg64
(lp1265
g271
asbag57
(g78
g59
NtRp1266
(dp1267
g62
(dp1268
g89
g90
ssg71
g1258
sg64
(lp1269
S':'
asbag57
(g78
g59
NtRp1270
(dp1271
g62
(dp1272
sg71
g1258
sg64
(lp1273
g57
(g58
g59
NtRp1274
(dp1275
g62
(dp1276
g70
I4
ssg71
g1270
sg64
(lp1277
S"set(['c:\\\\python27\\\\web2py\\\\applications\\\\admin\\\\', 'c:\\\\python27\\\\web2py\\\\applications\\\\welcome\\\\', 'c:\\\\python27\\\\web2py\\\\applications\\\\Graficos\\\\', 'c:\\\\python27\\\\web2py\\\\applications\\\\relogio\\\\'])"
p1278
asbasbasbag57
(g73
g59
NtRp1279
(dp1280
g62
(dp1281
sg71
g1254
sg64
(lp1282
g57
(g78
g59
NtRp1283
(dp1284
g62
(dp1285
g82
g83
ssg71
g1279
sg64
(lp1286
g293
asbag57
(g78
g59
NtRp1287
(dp1288
g62
(dp1289
g89
g90
ssg71
g1279
sg64
(lp1290
S':'
asbag57
(g78
g59
NtRp1291
(dp1292
g62
(dp1293
sg71
g1279
sg64
(lp1294
g57
(g58
g59
NtRp1295
(dp1296
g62
(dp1297
g70
I4
ssg71
g1291
sg64
(lp1298
g306
asbasbasbag57
(g73
g59
NtRp1299
(dp1300
g62
(dp1301
sg71
g1254
sg64
(lp1302
g57
(g78
g59
NtRp1303
(dp1304
g62
(dp1305
g82
g83
ssg71
g1299
sg64
(lp1306
g315
asbag57
(g78
g59
NtRp1307
(dp1308
g62
(dp1309
g89
g90
ssg71
g1299
sg64
(lp1310
S':'
asbag57
(g78
g59
NtRp1311
(dp1312
g62
(dp1313
sg71
g1299
sg64
(lp1314
g57
(g58
g59
NtRp1315
(dp1316
g62
(dp1317
g70
I4
ssg71
g1311
sg64
(lp1318
g57
(g66
g59
NtRp1319
(dp1320
g62
(dp1321
g70
I3
ssg71
Nsg64
(lp1322
sbasbasbasbag57
(g73
g59
NtRp1323
(dp1324
g62
(dp1325
sg71
g1254
sg64
(lp1326
g57
(g78
g59
NtRp1327
(dp1328
g62
(dp1329
g82
g83
ssg71
g1323
sg64
(lp1330
g340
asbag57
(g78
g59
NtRp1331
(dp1332
g62
(dp1333
g89
g90
ssg71
g1323
sg64
(lp1334
S':'
asbag57
(g78
g59
NtRp1335
(dp1336
g62
(dp1337
sg71
g1323
sg64
(lp1338
g57
(g58
g59
NtRp1339
(dp1340
g62
(dp1341
g70
I4
ssg71
g1335
sg64
(lp1342
S"<Values at 0x3bb5a30: {'verbose': False, 'ip': '127.0.0.1', 'shutdown_timeout': 5, 'taskbar': False, 'nocron': False, 'pid_filename': 'httpserver.pid', 'maxthreads': None, 'softcron': False, 'server_name': 'VSWKS071', 'bpython': False, 'nogui': False, 'port': 8000, 'extcron': False, 'debuglevel': 30, 'test': None, 'folder': 'c:\\\\python27\\\\web2py', 'config': '', 'import_models': False, 'winservice': '', 'shell': None, 'run': '', 'log_filename': 'httpserver.log', 'args': [''], 'socket_timeout': 5, 'ssl_ca_certificate': None, 'scheduler': None, 'profiler_filename': None, 'ssl_private_key': '', 'password': '<ask>', 'request_queue_size': 5, 'ssl_certificate': '', 'cronjob': False, 'numthreads': None, 'quiet': False, 'interfaces': None, 'minthreads': None, 'timeout': 10, 'plain': False, 'nobanner': False}>"
p1343
asbasbasbag57
(g73
g59
NtRp1344
(dp1345
g62
(dp1346
sg71
g1254
sg64
(lp1347
g57
(g78
g59
NtRp1348
(dp1349
g62
(dp1350
g82
g83
ssg71
g1344
sg64
(lp1351
g362
asbag57
(g78
g59
NtRp1352
(dp1353
g62
(dp1354
g89
g90
ssg71
g1344
sg64
(lp1355
S':'
asbag57
(g78
g59
NtRp1356
(dp1357
g62
(dp1358
sg71
g1344
sg64
(lp1359
g57
(g58
g59
NtRp1360
(dp1361
g62
(dp1362
g70
I4
ssg71
g1356
sg64
(lp1363
S'set([])'
p1364
asbasbasbag57
(g73
g59
NtRp1365
(dp1366
g62
(dp1367
sg71
g1254
sg64
(lp1368
g57
(g78
g59
NtRp1369
(dp1370
g62
(dp1371
g82
g83
ssg71
g1365
sg64
(lp1372
g384
asbag57
(g78
g59
NtRp1373
(dp1374
g62
(dp1375
g89
g90
ssg71
g1365
sg64
(lp1376
S':'
asbag57
(g78
g59
NtRp1377
(dp1378
g62
(dp1379
sg71
g1365
sg64
(lp1380
g57
(g58
g59
NtRp1381
(dp1382
g62
(dp1383
g70
I4
ssg71
g1377
sg64
(lp1384
g100
asbasbasbag57
(g73
g59
NtRp1385
(dp1386
g62
(dp1387
sg71
g1254
sg64
(lp1388
g57
(g78
g59
NtRp1389
(dp1390
g62
(dp1391
g82
g83
ssg71
g1385
sg64
(lp1392
g405
asbag57
(g78
g59
NtRp1393
(dp1394
g62
(dp1395
g89
g90
ssg71
g1385
sg64
(lp1396
S':'
asbag57
(g78
g59
NtRp1397
(dp1398
g62
(dp1399
sg71
g1385
sg64
(lp1400
g57
(g58
g59
NtRp1401
(dp1402
g62
(dp1403
g70
I4
ssg71
g1397
sg64
(lp1404
g418
asbasbasbag57
(g73
g59
NtRp1405
(dp1406
g62
(dp1407
sg71
g1254
sg64
(lp1408
g57
(g78
g59
NtRp1409
(dp1410
g62
(dp1411
g82
g83
ssg71
g1405
sg64
(lp1412
g559
asbag57
(g78
g59
NtRp1413
(dp1414
g62
(dp1415
g89
g90
ssg71
g1405
sg64
(lp1416
S':'
asbag57
(g78
g59
NtRp1417
(dp1418
g62
(dp1419
sg71
g1405
sg64
(lp1420
g57
(g58
g59
NtRp1421
(dp1422
g62
(dp1423
g70
I4
ssg71
g1417
sg64
(lp1424
g100
asbasbasbag57
(g73
g59
NtRp1425
(dp1426
g62
(dp1427
sg71
g1254
sg64
(lp1428
g57
(g78
g59
NtRp1429
(dp1430
g62
(dp1431
g82
g83
ssg71
g1425
sg64
(lp1432
g580
asbag57
(g78
g59
NtRp1433
(dp1434
g62
(dp1435
g89
g90
ssg71
g1425
sg64
(lp1436
S':'
asbag57
(g78
g59
NtRp1437
(dp1438
g62
(dp1439
sg71
g1425
sg64
(lp1440
g57
(g58
g59
NtRp1441
(dp1442
g62
(dp1443
g70
I4
ssg71
g1437
sg64
(lp1444
g100
asbasbasbag57
(g73
g59
NtRp1445
(dp1446
g62
(dp1447
sg71
g1254
sg64
(lp1448
g57
(g78
g59
NtRp1449
(dp1450
g62
(dp1451
g82
g83
ssg71
g1445
sg64
(lp1452
g818
asbag57
(g78
g59
NtRp1453
(dp1454
g62
(dp1455
g89
g90
ssg71
g1445
sg64
(lp1456
S':'
asbag57
(g78
g59
NtRp1457
(dp1458
g62
(dp1459
sg71
g1445
sg64
(lp1460
g57
(g58
g59
NtRp1461
(dp1462
g62
(dp1463
g70
I4
ssg71
g1457
sg64
(lp1464
g831
asbasbasbag57
(g73
g59
NtRp1465
(dp1466
g62
(dp1467
sg71
g1254
sg64
(lp1468
g57
(g78
g59
NtRp1469
(dp1470
g62
(dp1471
g82
g83
ssg71
g1465
sg64
(lp1472
g861
asbag57
(g78
g59
NtRp1473
(dp1474
g62
(dp1475
g89
g90
ssg71
g1465
sg64
(lp1476
S':'
asbag57
(g78
g59
NtRp1477
(dp1478
g62
(dp1479
sg71
g1465
sg64
(lp1480
g57
(g58
g59
NtRp1481
(dp1482
g62
(dp1483
g70
I4
ssg71
g1477
sg64
(lp1484
g57
(g66
g59
NtRp1485
(dp1486
g62
(dp1487
g70
I3
ssg71
Nsg64
(lp1488
g57
(g73
g59
NtRp1489
(dp1490
g62
(dp1491
sg71
g1485
sg64
(lp1492
g57
(g78
g59
NtRp1493
(dp1494
g62
(dp1495
sg71
g1489
sg64
(lp1496
g57
(g58
g59
NtRp1497
(dp1498
g62
(dp1499
g70
I3
ssg71
g1493
sg64
(lp1500
S'1'
asbasbasbag57
(g73
g59
NtRp1501
(dp1502
g62
(dp1503
sg71
g1485
sg64
(lp1504
g57
(g78
g59
NtRp1505
(dp1506
g62
(dp1507
sg71
g1501
sg64
(lp1508
g57
(g58
g59
NtRp1509
(dp1510
g62
(dp1511
g70
I3
ssg71
g1505
sg64
(lp1512
S'99'
p1513
asbasbasbag57
(g73
g59
NtRp1514
(dp1515
g62
(dp1516
sg71
g1485
sg64
(lp1517
g57
(g78
g59
NtRp1518
(dp1519
g62
(dp1520
sg71
g1514
sg64
(lp1521
g57
(g58
g59
NtRp1522
(dp1523
g62
(dp1524
g70
I3
ssg71
g1518
sg64
(lp1525
S'7'
asbasbasbag57
(g73
g59
NtRp1526
(dp1527
g62
(dp1528
sg71
g1485
sg64
(lp1529
g57
(g78
g59
NtRp1530
(dp1531
g62
(dp1532
sg71
g1526
sg64
(lp1533
g57
(g58
g59
NtRp1534
(dp1535
g62
(dp1536
g70
I3
ssg71
g1530
sg64
(lp1537
S'datetime.datetime(2012, 3, 4, 22, 12, 8)'
p1538
asbasbasbag57
(g73
g59
NtRp1539
(dp1540
g62
(dp1541
sg71
g1485
sg64
(lp1542
g57
(g78
g59
NtRp1543
(dp1544
g62
(dp1545
sg71
g1539
sg64
(lp1546
g57
(g58
g59
NtRp1547
(dp1548
g62
(dp1549
g70
I3
ssg71
g1543
sg64
(lp1550
g940
asbasbasbasbasbasbasbasbasbasbasbag57
(g73
g59
NtRp1551
(dp1552
g62
(dp1553
sg71
g67
sg64
(lp1554
g57
(g78
g59
NtRp1555
(dp1556
g62
(dp1557
g82
g83
ssg71
g1551
sg64
(lp1558
S'is_https'
p1559
asbag57
(g78
g59
NtRp1560
(dp1561
g62
(dp1562
g89
g90
ssg71
g1551
sg64
(lp1563
S':'
asbag57
(g78
g59
NtRp1564
(dp1565
g62
(dp1566
sg71
g1551
sg64
(lp1567
g57
(g58
g59
NtRp1568
(dp1569
g62
(dp1570
g70
I5
ssg71
g1564
sg64
(lp1571
g100
asbasbasbag57
(g73
g59
NtRp1572
(dp1573
g62
(dp1574
sg71
g67
sg64
(lp1575
g57
(g78
g59
NtRp1576
(dp1577
g62
(dp1578
g82
g83
ssg71
g1572
sg64
(lp1579
S'is_local'
p1580
asbag57
(g78
g59
NtRp1581
(dp1582
g62
(dp1583
g89
g90
ssg71
g1572
sg64
(lp1584
S':'
asbag57
(g78
g59
NtRp1585
(dp1586
g62
(dp1587
sg71
g1572
sg64
(lp1588
g57
(g58
g59
NtRp1589
(dp1590
g62
(dp1591
g70
I5
ssg71
g1585
sg64
(lp1592
g1049
asbasbasbag57
(g73
g59
NtRp1593
(dp1594
g62
(dp1595
sg71
g67
sg64
(lp1596
g57
(g78
g59
NtRp1597
(dp1598
g62
(dp1599
g82
g83
ssg71
g1593
sg64
(lp1600
S'is_restful'
p1601
asbag57
(g78
g59
NtRp1602
(dp1603
g62
(dp1604
g89
g90
ssg71
g1593
sg64
(lp1605
S':'
asbag57
(g78
g59
NtRp1606
(dp1607
g62
(dp1608
sg71
g1593
sg64
(lp1609
g57
(g58
g59
NtRp1610
(dp1611
g62
(dp1612
g70
I5
ssg71
g1606
sg64
(lp1613
g100
asbasbasbag57
(g73
g59
NtRp1614
(dp1615
g62
(dp1616
sg71
g67
sg64
(lp1617
g57
(g78
g59
NtRp1618
(dp1619
g62
(dp1620
g82
g83
ssg71
g1614
sg64
(lp1621
S'now'
p1622
asbag57
(g78
g59
NtRp1623
(dp1624
g62
(dp1625
g89
g90
ssg71
g1614
sg64
(lp1626
S':'
asbag57
(g78
g59
NtRp1627
(dp1628
g62
(dp1629
sg71
g1614
sg64
(lp1630
g57
(g58
g59
NtRp1631
(dp1632
g62
(dp1633
g70
I5
ssg71
g1627
sg64
(lp1634
S'datetime.datetime(2012, 10, 26, 13, 22, 54, 565000)'
p1635
asbasbasbag57
(g73
g59
NtRp1636
(dp1637
g62
(dp1638
sg71
g67
sg64
(lp1639
g57
(g78
g59
NtRp1640
(dp1641
g62
(dp1642
g82
g83
ssg71
g1636
sg64
(lp1643
S'post_vars'
p1644
asbag57
(g78
g59
NtRp1645
(dp1646
g62
(dp1647
g89
g90
ssg71
g1636
sg64
(lp1648
S':'
asbag57
(g78
g59
NtRp1649
(dp1650
g62
(dp1651
sg71
g1636
sg64
(lp1652
g57
(g58
g59
NtRp1653
(dp1654
g62
(dp1655
g70
I5
ssg71
g1649
sg64
(lp1656
g57
(g66
g59
NtRp1657
(dp1658
g62
(dp1659
g70
I4
ssg71
Nsg64
(lp1660
sbasbasbasbag57
(g73
g59
NtRp1661
(dp1662
g62
(dp1663
sg71
g67
sg64
(lp1664
g57
(g78
g59
NtRp1665
(dp1666
g62
(dp1667
g82
g83
ssg71
g1661
sg64
(lp1668
S'url'
p1669
asbag57
(g78
g59
NtRp1670
(dp1671
g62
(dp1672
g89
g90
ssg71
g1661
sg64
(lp1673
S':'
asbag57
(g78
g59
NtRp1674
(dp1675
g62
(dp1676
sg71
g1661
sg64
(lp1677
g57
(g58
g59
NtRp1678
(dp1679
g62
(dp1680
g70
I5
ssg71
g1674
sg64
(lp1681
S'/Graficos/default/index'
p1682
asbasbasbag57
(g73
g59
NtRp1683
(dp1684
g62
(dp1685
sg71
g67
sg64
(lp1686
g57
(g78
g59
NtRp1687
(dp1688
g62
(dp1689
g82
g83
ssg71
g1683
sg64
(lp1690
S'utcnow'
p1691
asbag57
(g78
g59
NtRp1692
(dp1693
g62
(dp1694
g89
g90
ssg71
g1683
sg64
(lp1695
S':'
asbag57
(g78
g59
NtRp1696
(dp1697
g62
(dp1698
sg71
g1683
sg64
(lp1699
g57
(g58
g59
NtRp1700
(dp1701
g62
(dp1702
g70
I5
ssg71
g1696
sg64
(lp1703
S'datetime.datetime(2012, 10, 26, 16, 22, 54, 565000)'
p1704
asbasbasbag57
(g73
g59
NtRp1705
(dp1706
g62
(dp1707
sg71
g67
sg64
(lp1708
g57
(g78
g59
NtRp1709
(dp1710
g62
(dp1711
g82
g83
ssg71
g1705
sg64
(lp1712
S'uuid'
p1713
asbag57
(g78
g59
NtRp1714
(dp1715
g62
(dp1716
g89
g90
ssg71
g1705
sg64
(lp1717
S':'
asbag57
(g78
g59
NtRp1718
(dp1719
g62
(dp1720
sg71
g1705
sg64
(lp1721
g57
(g58
g59
NtRp1722
(dp1723
g62
(dp1724
g70
I5
ssg71
g1718
sg64
(lp1725
S'Graficos/127.0.0.1.2012-10-26.13-22-54.0a0dab29-cf1e-4a3a-b523-f378faf8774e'
p1726
asbasbasbag57
(g73
g59
NtRp1727
(dp1728
g62
(dp1729
sg71
g67
sg64
(lp1730
g57
(g78
g59
NtRp1731
(dp1732
g62
(dp1733
g82
g83
ssg71
g1727
sg64
(lp1734
S'vars'
p1735
asbag57
(g78
g59
NtRp1736
(dp1737
g62
(dp1738
g89
g90
ssg71
g1727
sg64
(lp1739
S':'
asbag57
(g78
g59
NtRp1740
(dp1741
g62
(dp1742
sg71
g1727
sg64
(lp1743
g57
(g58
g59
NtRp1744
(dp1745
g62
(dp1746
g70
I5
ssg71
g1740
sg64
(lp1747
g57
(g66
g59
NtRp1748
(dp1749
g62
(dp1750
g70
I4
ssg71
Nsg64
(lp1751
sbasbasbasbag57
(g73
g59
NtRp1752
(dp1753
g62
(dp1754
sg71
g67
sg64
(lp1755
g57
(g78
g59
NtRp1756
(dp1757
g62
(dp1758
g82
g83
ssg71
g1752
sg64
(lp1759
S'wsgi'
p1760
asbag57
(g78
g59
NtRp1761
(dp1762
g62
(dp1763
g89
g90
ssg71
g1752
sg64
(lp1764
S':'
asbag57
(g78
g59
NtRp1765
(dp1766
g62
(dp1767
sg71
g1752
sg64
(lp1768
g57
(g58
g59
NtRp1769
(dp1770
g62
(dp1771
g70
I5
ssg71
g1765
sg64
(lp1772
g57
(g66
g59
NtRp1773
(dp1774
g62
(dp1775
g70
I4
ssg71
Nsg64
(lp1776
g57
(g73
g59
NtRp1777
(dp1778
g62
(dp1779
sg71
g1773
sg64
(lp1780
g57
(g78
g59
NtRp1781
(dp1782
g62
(dp1783
g82
g83
ssg71
g1777
sg64
(lp1784
S'environ'
p1785
asbag57
(g78
g59
NtRp1786
(dp1787
g62
(dp1788
g89
g90
ssg71
g1777
sg64
(lp1789
S':'
asbag57
(g78
g59
NtRp1790
(dp1791
g62
(dp1792
sg71
g1777
sg64
(lp1793
g57
(g58
g59
NtRp1794
(dp1795
g62
(dp1796
g70
I4
ssg71
g1790
sg64
(lp1797
g57
(g66
g59
NtRp1798
(dp1799
g62
(dp1800
g70
I3
ssg71
Nsg64
(lp1801
g57
(g73
g59
NtRp1802
(dp1803
g62
(dp1804
sg71
g1798
sg64
(lp1805
g57
(g78
g59
NtRp1806
(dp1807
g62
(dp1808
g82
g83
ssg71
g1802
sg64
(lp1809
S'HTTP_ACCEPT'
p1810
asbag57
(g78
g59
NtRp1811
(dp1812
g62
(dp1813
g89
g90
ssg71
g1802
sg64
(lp1814
S':'
asbag57
(g78
g59
NtRp1815
(dp1816
g62
(dp1817
sg71
g1802
sg64
(lp1818
g57
(g58
g59
NtRp1819
(dp1820
g62
(dp1821
g70
I3
ssg71
g1815
sg64
(lp1822
g440
asbasbasbag57
(g73
g59
NtRp1823
(dp1824
g62
(dp1825
sg71
g1798
sg64
(lp1826
g57
(g78
g59
NtRp1827
(dp1828
g62
(dp1829
g82
g83
ssg71
g1823
sg64
(lp1830
S'HTTP_ACCEPT_ENCODING'
p1831
asbag57
(g78
g59
NtRp1832
(dp1833
g62
(dp1834
g89
g90
ssg71
g1823
sg64
(lp1835
S':'
asbag57
(g78
g59
NtRp1836
(dp1837
g62
(dp1838
sg71
g1823
sg64
(lp1839
g57
(g58
g59
NtRp1840
(dp1841
g62
(dp1842
g70
I3
ssg71
g1836
sg64
(lp1843
g462
asbasbasbag57
(g73
g59
NtRp1844
(dp1845
g62
(dp1846
sg71
g1798
sg64
(lp1847
g57
(g78
g59
NtRp1848
(dp1849
g62
(dp1850
g82
g83
ssg71
g1844
sg64
(lp1851
S'HTTP_ACCEPT_LANGUAGE'
p1852
asbag57
(g78
g59
NtRp1853
(dp1854
g62
(dp1855
g89
g90
ssg71
g1844
sg64
(lp1856
S':'
asbag57
(g78
g59
NtRp1857
(dp1858
g62
(dp1859
sg71
g1844
sg64
(lp1860
g57
(g58
g59
NtRp1861
(dp1862
g62
(dp1863
g70
I3
ssg71
g1857
sg64
(lp1864
g484
asbasbasbag57
(g73
g59
NtRp1865
(dp1866
g62
(dp1867
sg71
g1798
sg64
(lp1868
g57
(g78
g59
NtRp1869
(dp1870
g62
(dp1871
g82
g83
ssg71
g1865
sg64
(lp1872
S'HTTP_CONNECTION'
p1873
asbag57
(g78
g59
NtRp1874
(dp1875
g62
(dp1876
g89
g90
ssg71
g1865
sg64
(lp1877
S':'
asbag57
(g78
g59
NtRp1878
(dp1879
g62
(dp1880
sg71
g1865
sg64
(lp1881
g57
(g58
g59
NtRp1882
(dp1883
g62
(dp1884
g70
I3
ssg71
g1878
sg64
(lp1885
g506
asbasbasbag57
(g73
g59
NtRp1886
(dp1887
g62
(dp1888
sg71
g1798
sg64
(lp1889
g57
(g78
g59
NtRp1890
(dp1891
g62
(dp1892
g82
g83
ssg71
g1886
sg64
(lp1893
S'HTTP_HOST'
p1894
asbag57
(g78
g59
NtRp1895
(dp1896
g62
(dp1897
g89
g90
ssg71
g1886
sg64
(lp1898
S':'
asbag57
(g78
g59
NtRp1899
(dp1900
g62
(dp1901
sg71
g1886
sg64
(lp1902
g57
(g58
g59
NtRp1903
(dp1904
g62
(dp1905
g70
I3
ssg71
g1899
sg64
(lp1906
g528
asbasbasbag57
(g73
g59
NtRp1907
(dp1908
g62
(dp1909
sg71
g1798
sg64
(lp1910
g57
(g78
g59
NtRp1911
(dp1912
g62
(dp1913
g82
g83
ssg71
g1907
sg64
(lp1914
S'HTTP_USER_AGENT'
p1915
asbag57
(g78
g59
NtRp1916
(dp1917
g62
(dp1918
g89
g90
ssg71
g1907
sg64
(lp1919
S':'
asbag57
(g78
g59
NtRp1920
(dp1921
g62
(dp1922
sg71
g1907
sg64
(lp1923
g57
(g58
g59
NtRp1924
(dp1925
g62
(dp1926
g70
I3
ssg71
g1920
sg64
(lp1927
g550
asbasbasbag57
(g73
g59
NtRp1928
(dp1929
g62
(dp1930
sg71
g1798
sg64
(lp1931
g57
(g78
g59
NtRp1932
(dp1933
g62
(dp1934
g82
g83
ssg71
g1928
sg64
(lp1935
S'PATH_INFO'
p1936
asbag57
(g78
g59
NtRp1937
(dp1938
g62
(dp1939
g89
g90
ssg71
g1928
sg64
(lp1940
S':'
asbag57
(g78
g59
NtRp1941
(dp1942
g62
(dp1943
sg71
g1928
sg64
(lp1944
g57
(g58
g59
NtRp1945
(dp1946
g62
(dp1947
g70
I3
ssg71
g1941
sg64
(lp1948
g614
asbasbasbag57
(g73
g59
NtRp1949
(dp1950
g62
(dp1951
sg71
g1798
sg64
(lp1952
g57
(g78
g59
NtRp1953
(dp1954
g62
(dp1955
g82
g83
ssg71
g1949
sg64
(lp1956
S'QUERY_STRING'
p1957
asbag57
(g78
g59
NtRp1958
(dp1959
g62
(dp1960
g89
g90
ssg71
g1949
sg64
(lp1961
S':'
asbag57
(g78
g59
NtRp1962
(dp1963
g62
(dp1964
sg71
g1949
sg64
(lp1965
g57
(g58
g59
NtRp1966
(dp1967
g62
(dp1968
g70
I3
ssg71
g1962
sg64
(lp1969
S''
asbasbasbag57
(g73
g59
NtRp1970
(dp1971
g62
(dp1972
sg71
g1798
sg64
(lp1973
g57
(g78
g59
NtRp1974
(dp1975
g62
(dp1976
g82
g83
ssg71
g1970
sg64
(lp1977
S'REMOTE_ADDR'
p1978
asbag57
(g78
g59
NtRp1979
(dp1980
g62
(dp1981
g89
g90
ssg71
g1970
sg64
(lp1982
S':'
asbag57
(g78
g59
NtRp1983
(dp1984
g62
(dp1985
sg71
g1970
sg64
(lp1986
g57
(g58
g59
NtRp1987
(dp1988
g62
(dp1989
g70
I3
ssg71
g1983
sg64
(lp1990
g190
asbasbasbag57
(g73
g59
NtRp1991
(dp1992
g62
(dp1993
sg71
g1798
sg64
(lp1994
g57
(g78
g59
NtRp1995
(dp1996
g62
(dp1997
g82
g83
ssg71
g1991
sg64
(lp1998
S'REMOTE_PORT'
p1999
asbag57
(g78
g59
NtRp2000
(dp2001
g62
(dp2002
g89
g90
ssg71
g1991
sg64
(lp2003
S':'
asbag57
(g78
g59
NtRp2004
(dp2005
g62
(dp2006
sg71
g1991
sg64
(lp2007
g57
(g58
g59
NtRp2008
(dp2009
g62
(dp2010
g70
I3
ssg71
g2004
sg64
(lp2011
g678
asbasbasbag57
(g73
g59
NtRp2012
(dp2013
g62
(dp2014
sg71
g1798
sg64
(lp2015
g57
(g78
g59
NtRp2016
(dp2017
g62
(dp2018
g82
g83
ssg71
g2012
sg64
(lp2019
S'REQUEST_METHOD'
p2020
asbag57
(g78
g59
NtRp2021
(dp2022
g62
(dp2023
g89
g90
ssg71
g2012
sg64
(lp2024
S':'
asbag57
(g78
g59
NtRp2025
(dp2026
g62
(dp2027
sg71
g2012
sg64
(lp2028
g57
(g58
g59
NtRp2029
(dp2030
g62
(dp2031
g70
I3
ssg71
g2025
sg64
(lp2032
g700
asbasbasbag57
(g73
g59
NtRp2033
(dp2034
g62
(dp2035
sg71
g1798
sg64
(lp2036
g57
(g78
g59
NtRp2037
(dp2038
g62
(dp2039
g82
g83
ssg71
g2033
sg64
(lp2040
S'SCRIPT_NAME'
p2041
asbag57
(g78
g59
NtRp2042
(dp2043
g62
(dp2044
g89
g90
ssg71
g2033
sg64
(lp2045
S':'
asbag57
(g78
g59
NtRp2046
(dp2047
g62
(dp2048
sg71
g2033
sg64
(lp2049
g57
(g58
g59
NtRp2050
(dp2051
g62
(dp2052
g70
I3
ssg71
g2046
sg64
(lp2053
S''
asbasbasbag57
(g73
g59
NtRp2054
(dp2055
g62
(dp2056
sg71
g1798
sg64
(lp2057
g57
(g78
g59
NtRp2058
(dp2059
g62
(dp2060
g82
g83
ssg71
g2054
sg64
(lp2061
S'SERVER_NAME'
p2062
asbag57
(g78
g59
NtRp2063
(dp2064
g62
(dp2065
g89
g90
ssg71
g2054
sg64
(lp2066
S':'
asbag57
(g78
g59
NtRp2067
(dp2068
g62
(dp2069
sg71
g2054
sg64
(lp2070
g57
(g58
g59
NtRp2071
(dp2072
g62
(dp2073
g70
I3
ssg71
g2067
sg64
(lp2074
g743
asbasbasbag57
(g73
g59
NtRp2075
(dp2076
g62
(dp2077
sg71
g1798
sg64
(lp2078
g57
(g78
g59
NtRp2079
(dp2080
g62
(dp2081
g82
g83
ssg71
g2075
sg64
(lp2082
S'SERVER_PORT'
p2083
asbag57
(g78
g59
NtRp2084
(dp2085
g62
(dp2086
g89
g90
ssg71
g2075
sg64
(lp2087
S':'
asbag57
(g78
g59
NtRp2088
(dp2089
g62
(dp2090
sg71
g2075
sg64
(lp2091
g57
(g58
g59
NtRp2092
(dp2093
g62
(dp2094
g70
I3
ssg71
g2088
sg64
(lp2095
g765
asbasbasbag57
(g73
g59
NtRp2096
(dp2097
g62
(dp2098
sg71
g1798
sg64
(lp2099
g57
(g78
g59
NtRp2100
(dp2101
g62
(dp2102
g82
g83
ssg71
g2096
sg64
(lp2103
S'SERVER_PROTOCOL'
p2104
asbag57
(g78
g59
NtRp2105
(dp2106
g62
(dp2107
g89
g90
ssg71
g2096
sg64
(lp2108
S':'
asbag57
(g78
g59
NtRp2109
(dp2110
g62
(dp2111
sg71
g2096
sg64
(lp2112
g57
(g58
g59
NtRp2113
(dp2114
g62
(dp2115
g70
I3
ssg71
g2109
sg64
(lp2116
g787
asbasbasbag57
(g73
g59
NtRp2117
(dp2118
g62
(dp2119
sg71
g1798
sg64
(lp2120
g57
(g78
g59
NtRp2121
(dp2122
g62
(dp2123
g82
g83
ssg71
g2117
sg64
(lp2124
S'SERVER_SOFTWARE'
p2125
asbag57
(g78
g59
NtRp2126
(dp2127
g62
(dp2128
g89
g90
ssg71
g2117
sg64
(lp2129
S':'
asbag57
(g78
g59
NtRp2130
(dp2131
g62
(dp2132
sg71
g2117
sg64
(lp2133
g57
(g58
g59
NtRp2134
(dp2135
g62
(dp2136
g70
I3
ssg71
g2130
sg64
(lp2137
g809
asbasbasbag57
(g73
g59
NtRp2138
(dp2139
g62
(dp2140
sg71
g1798
sg64
(lp2141
g57
(g78
g59
NtRp2142
(dp2143
g62
(dp2144
g82
g83
ssg71
g2138
sg64
(lp2145
S'wsgi.errors'
p2146
asbag57
(g78
g59
NtRp2147
(dp2148
g62
(dp2149
g89
g90
ssg71
g2138
sg64
(lp2150
S':'
asbag57
(g78
g59
NtRp2151
(dp2152
g62
(dp2153
sg71
g2138
sg64
(lp2154
g57
(g58
g59
NtRp2155
(dp2156
g62
(dp2157
g70
I3
ssg71
g2151
sg64
(lp2158
S"<open file '<stderr>', mode 'w' at 0x005E50D0>"
p2159
asbasbasbag57
(g73
g59
NtRp2160
(dp2161
g62
(dp2162
sg71
g1798
sg64
(lp2163
g57
(g78
g59
NtRp2164
(dp2165
g62
(dp2166
g82
g83
ssg71
g2160
sg64
(lp2167
S'wsgi.file_wrapper'
p2168
asbag57
(g78
g59
NtRp2169
(dp2170
g62
(dp2171
g89
g90
ssg71
g2160
sg64
(lp2172
S':'
asbag57
(g78
g59
NtRp2173
(dp2174
g62
(dp2175
sg71
g2160
sg64
(lp2176
g57
(g58
g59
NtRp2177
(dp2178
g62
(dp2179
g70
I3
ssg71
g2173
sg64
(lp2180
S'<class wsgiref.util.FileWrapper at 0x03AF0CE0>'
p2181
asbasbasbag57
(g73
g59
NtRp2182
(dp2183
g62
(dp2184
sg71
g1798
sg64
(lp2185
g57
(g78
g59
NtRp2186
(dp2187
g62
(dp2188
g82
g83
ssg71
g2182
sg64
(lp2189
S'wsgi.input'
p2190
asbag57
(g78
g59
NtRp2191
(dp2192
g62
(dp2193
g89
g90
ssg71
g2182
sg64
(lp2194
S':'
asbag57
(g78
g59
NtRp2195
(dp2196
g62
(dp2197
sg71
g2182
sg64
(lp2198
g57
(g58
g59
NtRp2199
(dp2200
g62
(dp2201
g70
I3
ssg71
g2195
sg64
(lp2202
S'<cStringIO.StringO object at 0x08001720>'
p2203
asbasbasbag57
(g73
g59
NtRp2204
(dp2205
g62
(dp2206
sg71
g1798
sg64
(lp2207
g57
(g78
g59
NtRp2208
(dp2209
g62
(dp2210
g82
g83
ssg71
g2204
sg64
(lp2211
S'wsgi.multiprocess'
p2212
asbag57
(g78
g59
NtRp2213
(dp2214
g62
(dp2215
g89
g90
ssg71
g2204
sg64
(lp2216
S':'
asbag57
(g78
g59
NtRp2217
(dp2218
g62
(dp2219
sg71
g2204
sg64
(lp2220
g57
(g58
g59
NtRp2221
(dp2222
g62
(dp2223
g70
I3
ssg71
g2217
sg64
(lp2224
g100
asbasbasbag57
(g73
g59
NtRp2225
(dp2226
g62
(dp2227
sg71
g1798
sg64
(lp2228
g57
(g78
g59
NtRp2229
(dp2230
g62
(dp2231
g82
g83
ssg71
g2225
sg64
(lp2232
S'wsgi.multithread'
p2233
asbag57
(g78
g59
NtRp2234
(dp2235
g62
(dp2236
g89
g90
ssg71
g2225
sg64
(lp2237
S':'
asbag57
(g78
g59
NtRp2238
(dp2239
g62
(dp2240
sg71
g2225
sg64
(lp2241
g57
(g58
g59
NtRp2242
(dp2243
g62
(dp2244
g70
I3
ssg71
g2238
sg64
(lp2245
g1049
asbasbasbag57
(g73
g59
NtRp2246
(dp2247
g62
(dp2248
sg71
g1798
sg64
(lp2249
g57
(g78
g59
NtRp2250
(dp2251
g62
(dp2252
g82
g83
ssg71
g2246
sg64
(lp2253
S'wsgi.run_once'
p2254
asbag57
(g78
g59
NtRp2255
(dp2256
g62
(dp2257
g89
g90
ssg71
g2246
sg64
(lp2258
S':'
asbag57
(g78
g59
NtRp2259
(dp2260
g62
(dp2261
sg71
g2246
sg64
(lp2262
g57
(g58
g59
NtRp2263
(dp2264
g62
(dp2265
g70
I3
ssg71
g2259
sg64
(lp2266
g100
asbasbasbag57
(g73
g59
NtRp2267
(dp2268
g62
(dp2269
sg71
g1798
sg64
(lp2270
g57
(g78
g59
NtRp2271
(dp2272
g62
(dp2273
g82
g83
ssg71
g2267
sg64
(lp2274
S'wsgi.url_scheme'
p2275
asbag57
(g78
g59
NtRp2276
(dp2277
g62
(dp2278
g89
g90
ssg71
g2267
sg64
(lp2279
S':'
asbag57
(g78
g59
NtRp2280
(dp2281
g62
(dp2282
sg71
g2267
sg64
(lp2283
g57
(g58
g59
NtRp2284
(dp2285
g62
(dp2286
g70
I3
ssg71
g2280
sg64
(lp2287
g1092
asbasbasbag57
(g73
g59
NtRp2288
(dp2289
g62
(dp2290
sg71
g1798
sg64
(lp2291
g57
(g78
g59
NtRp2292
(dp2293
g62
(dp2294
g82
g83
ssg71
g2288
sg64
(lp2295
S'wsgi.version'
p2296
asbag57
(g78
g59
NtRp2297
(dp2298
g62
(dp2299
g89
g90
ssg71
g2288
sg64
(lp2300
S':'
asbag57
(g78
g59
NtRp2301
(dp2302
g62
(dp2303
sg71
g2288
sg64
(lp2304
g57
(g58
g59
NtRp2305
(dp2306
g62
(dp2307
g70
I3
ssg71
g2301
sg64
(lp2308
S'1'
asbasbasbasbasbasbasbasbasbasbasbasbasbsS'frames'
p2309
(lp2310
(dp2311
S'file'
p2312
S'c:\\python27\\web2py\\gluon\\restricted.py'
p2313
sS'dump'
p2314
(dp2315
S'environment'
p2316
S"{'A': <class 'gluon.html.A'>, 'Auth': <class 'gluon.tools.Auth'>, 'B': <class 'gluon.html.B'>, 'BEAUTIFY': <class 'gluon.html.BEAUTIFY'>, 'BODY': <class 'gluon.html.BODY'>, 'BR': <class 'gluon.html.BR'>, 'BUTTON': <class 'gluon.html.BUTTON'>, 'CAT': <class 'gluon.html.CAT'>, 'CENTER': <class 'gluon.html.CENTER'>, 'CLEANUP': <class 'gluon.validators.CLEANUP'>, ...}"
p2317
sS'ccode'
p2318
S'<code object <module> at 08088800, file "c:\\pyth...cations\\Graficos\\controllers/default.py", line 3>'
p2319
ssS'lnum'
p2320
I205
sS'lines'
p2321
(dp2322
I200
S'    try:'
p2323
sI201
S'        if type(code) == types.CodeType:'
p2324
sI202
S'            ccode = code'
p2325
sI203
S'        else:'
p2326
sI204
S'            ccode = compile2(code,layer)'
p2327
sI205
S'        exec ccode in environment'
p2328
sI206
S'    except HTTP:'
p2329
sI207
S'        raise'
p2330
sI208
S'    except RestrictedError:'
p2331
sI209
S'        # do not encapsulate (obfuscate) the original RestrictedError'
p2332
ssS'call'
p2333
S"(code='# -*- coding: utf-8 -*-\\n\\nfrom gluon.custom_impor...n colunas\\nresponse._vars=response._caller(index)\\n', environment={'A': <class 'gluon.html.A'>, 'Auth': <class 'gluon.tools.Auth'>, 'B': <class 'gluon.html.B'>, 'BEAUTIFY': <class 'gluon.html.BEAUTIFY'>, 'BODY': <class 'gluon.html.BODY'>, 'BR': <class 'gluon.html.BR'>, 'BUTTON': <class 'gluon.html.BUTTON'>, 'CAT': <class 'gluon.html.CAT'>, 'CENTER': <class 'gluon.html.CENTER'>, 'CLEANUP': <class 'gluon.validators.CLEANUP'>, ...}, layer=r'c:\\python27\\web2py\\applications\\Graficos\\controllers/default.py')"
p2334
sS'func'
p2335
S'restricted'
p2336
sa(dp2337
g2312
S'c:\\python27\\web2py\\applications\\Graficos\\controllers\\default.py'
p2338
sg2314
(dp2339
sg2320
I79
sg2321
(dp2340
I69
S"                _id='container' + str(nmlinha) + '0',_style='width:' + str(largcel) + 'px; height: ' + str(altcel) + 'px; margin: 0 auto'), )"
p2341
sI70
S''
sI71
S'    for c in xrange(1,nmcolunas):'
p2342
sI72
S''
sI73
S'        # adiciona colunas a linha at\xc3\xa9 a quantidade selecionada'
p2343
sI74
S''
sI75
S"        colunas =  colunas + (TD(SCRIPT(XML(strchart2),_type='text/javascript'),"
p2344
sI76
S"                              _id='container' + str(nmlinha) + str(c),_style='width:' + str(largcel) + 'px; height: ' + str(altcel) + 'px; margin: 0 auto'), )"
p2345
sI77
S''
sI78
S'    return colunas'
p2346
ssg2333
S'()'
p2347
sg2335
S'<module>'
p2348
sa(dp2349
g2312
S'c:\\python27\\web2py\\gluon\\globals.py'
p2350
sg2314
(dp2351
S'self'
p2352
S'undefined'
p2353
sS'f'
S'<function index>'
p2354
ssg2320
I173
sg2321
(dp2355
I168
S'        self.menu = []             # used by the default view layout'
p2356
sI169
S'        self.files = []            # used by web2py_ajax.html'
p2357
sI170
S'        self.generic_patterns = [] # patterns to allow generic views'
p2358
sI171
S"        self.delimiters = ('{{','}}')"
p2359
sI172
S'        self._vars = None'
p2360
sI173
S'        self._caller = lambda f: f()'
p2361
sI174
S'        self._view_environment = None'
p2362
sI175
S'        self._custom_commit = None'
p2363
sI176
S'        self._custom_rollback = None'
p2364
sI177
S''
ssg2333
S'(f=<function index>)'
p2365
sg2335
S'<lambda>'
p2366
sa(dp2367
g2312
S'c:\\python27\\web2py\\applications\\Graficos\\controllers\\default.py'
p2368
sg2314
(dp2369
S'chart2'
p2370
g2353
sS'chart'
p2371
g2353
ssg2320
I14
sg2321
(dp2372
I9
S''
sI10
S'def index():'
p2373
sI11
S''
sI12
S"    #chart1 = grafico.chart('column', 'container01')"
p2374
sI13
S"    chart1 = relogio.clock('gauge', 'container01')"
p2375
sI14
S"    chart2 = chart('pie', 'container10')"
p2376
sI15
S''
sI16
S'    a = html(chart1, chart2)'
p2377
sI17
S''
sI18
S'    return a'
p2378
ssg2333
S'()'
p2379
sg2335
S'index'
p2380
sasS'pyver'
p2381
S'Python 2.7.3: c:\\python27\\python.exe'
p2382
sS'session'
p2383
g57
(g58
g59
NtRp2384
(dp2385
g62
(dp2386
sg64
(lp2387
g57
(g66
g59
NtRp2388
(dp2389
g62
(dp2390
g70
I5
ssg71
Nsg64
(lp2391
sbasbsS'etype'
p2392
S"<type 'exceptions.NameError'>"
p2393
sS'date'
p2394
S'Fri Oct 26 13:22:54 2012'
p2395
sS'response'
p2396
g57
(g58
g59
NtRp2397
(dp2398
g62
(dp2399
sg64
(lp2400
g57
(g66
g59
NtRp2401
(dp2402
g62
(dp2403
g70
I5
ssg71
Nsg64
(lp2404
g57
(g73
g59
NtRp2405
(dp2406
g62
(dp2407
sg71
g2401
sg64
(lp2408
g57
(g78
g59
NtRp2409
(dp2410
g62
(dp2411
g82
g83
ssg71
g2405
sg64
(lp2412
g155
asbag57
(g78
g59
NtRp2413
(dp2414
g62
(dp2415
g89
g90
ssg71
g2405
sg64
(lp2416
S':'
asbag57
(g78
g59
NtRp2417
(dp2418
g62
(dp2419
sg71
g2405
sg64
(lp2420
g57
(g58
g59
NtRp2421
(dp2422
g62
(dp2423
g70
I5
ssg71
g2417
sg64
(lp2424
S'<cStringIO.StringO object at 0x080BD8A0>'
p2425
asbasbasbag57
(g73
g59
NtRp2426
(dp2427
g62
(dp2428
sg71
g2401
sg64
(lp2429
g57
(g78
g59
NtRp2430
(dp2431
g62
(dp2432
g82
g83
ssg71
g2426
sg64
(lp2433
g221
asbag57
(g78
g59
NtRp2434
(dp2435
g62
(dp2436
g89
g90
ssg71
g2426
sg64
(lp2437
S':'
asbag57
(g78
g59
NtRp2438
(dp2439
g62
(dp2440
sg71
g2426
sg64
(lp2441
g57
(g58
g59
NtRp2442
(dp2443
g62
(dp2444
g70
I5
ssg71
g2438
sg64
(lp2445
g57
(g66
g59
NtRp2446
(dp2447
g62
(dp2448
g70
I4
ssg71
Nsg64
(lp2449
g57
(g73
g59
NtRp2450
(dp2451
g62
(dp2452
sg71
g2446
sg64
(lp2453
g57
(g78
g59
NtRp2454
(dp2455
g62
(dp2456
g82
g83
ssg71
g2450
sg64
(lp2457
S'session_id_graficos'
p2458
asbag57
(g78
g59
NtRp2459
(dp2460
g62
(dp2461
g89
g90
ssg71
g2450
sg64
(lp2462
S':'
asbag57
(g78
g59
NtRp2463
(dp2464
g62
(dp2465
sg71
g2450
sg64
(lp2466
g57
(g58
g59
NtRp2467
(dp2468
g62
(dp2469
g70
I4
ssg71
g2463
sg64
(lp2470
g57
(g66
g59
NtRp2471
(dp2472
g62
(dp2473
g70
I3
ssg71
Nsg64
(lp2474
g57
(g73
g59
NtRp2475
(dp2476
g62
(dp2477
sg71
g2471
sg64
(lp2478
g57
(g78
g59
NtRp2479
(dp2480
g62
(dp2481
g82
g83
ssg71
g2475
sg64
(lp2482
S'comment'
p2483
asbag57
(g78
g59
NtRp2484
(dp2485
g62
(dp2486
g89
g90
ssg71
g2475
sg64
(lp2487
S':'
asbag57
(g78
g59
NtRp2488
(dp2489
g62
(dp2490
sg71
g2475
sg64
(lp2491
g57
(g58
g59
NtRp2492
(dp2493
g62
(dp2494
g70
I3
ssg71
g2488
sg64
(lp2495
S''
asbasbasbag57
(g73
g59
NtRp2496
(dp2497
g62
(dp2498
sg71
g2471
sg64
(lp2499
g57
(g78
g59
NtRp2500
(dp2501
g62
(dp2502
g82
g83
ssg71
g2496
sg64
(lp2503
S'domain'
p2504
asbag57
(g78
g59
NtRp2505
(dp2506
g62
(dp2507
g89
g90
ssg71
g2496
sg64
(lp2508
S':'
asbag57
(g78
g59
NtRp2509
(dp2510
g62
(dp2511
sg71
g2496
sg64
(lp2512
g57
(g58
g59
NtRp2513
(dp2514
g62
(dp2515
g70
I3
ssg71
g2509
sg64
(lp2516
S''
asbasbasbag57
(g73
g59
NtRp2517
(dp2518
g62
(dp2519
sg71
g2471
sg64
(lp2520
g57
(g78
g59
NtRp2521
(dp2522
g62
(dp2523
g82
g83
ssg71
g2517
sg64
(lp2524
S'expires'
p2525
asbag57
(g78
g59
NtRp2526
(dp2527
g62
(dp2528
g89
g90
ssg71
g2517
sg64
(lp2529
S':'
asbag57
(g78
g59
NtRp2530
(dp2531
g62
(dp2532
sg71
g2517
sg64
(lp2533
g57
(g58
g59
NtRp2534
(dp2535
g62
(dp2536
g70
I3
ssg71
g2530
sg64
(lp2537
S''
asbasbasbag57
(g73
g59
NtRp2538
(dp2539
g62
(dp2540
sg71
g2471
sg64
(lp2541
g57
(g78
g59
NtRp2542
(dp2543
g62
(dp2544
g82
g83
ssg71
g2538
sg64
(lp2545
S'httponly'
p2546
asbag57
(g78
g59
NtRp2547
(dp2548
g62
(dp2549
g89
g90
ssg71
g2538
sg64
(lp2550
S':'
asbag57
(g78
g59
NtRp2551
(dp2552
g62
(dp2553
sg71
g2538
sg64
(lp2554
g57
(g58
g59
NtRp2555
(dp2556
g62
(dp2557
g70
I3
ssg71
g2551
sg64
(lp2558
S''
asbasbasbag57
(g73
g59
NtRp2559
(dp2560
g62
(dp2561
sg71
g2471
sg64
(lp2562
g57
(g78
g59
NtRp2563
(dp2564
g62
(dp2565
g82
g83
ssg71
g2559
sg64
(lp2566
S'max-age'
p2567
asbag57
(g78
g59
NtRp2568
(dp2569
g62
(dp2570
g89
g90
ssg71
g2559
sg64
(lp2571
S':'
asbag57
(g78
g59
NtRp2572
(dp2573
g62
(dp2574
sg71
g2559
sg64
(lp2575
g57
(g58
g59
NtRp2576
(dp2577
g62
(dp2578
g70
I3
ssg71
g2572
sg64
(lp2579
S''
asbasbasbag57
(g73
g59
NtRp2580
(dp2581
g62
(dp2582
sg71
g2471
sg64
(lp2583
g57
(g78
g59
NtRp2584
(dp2585
g62
(dp2586
g82
g83
ssg71
g2580
sg64
(lp2587
S'path'
p2588
asbag57
(g78
g59
NtRp2589
(dp2590
g62
(dp2591
g89
g90
ssg71
g2580
sg64
(lp2592
S':'
asbag57
(g78
g59
NtRp2593
(dp2594
g62
(dp2595
sg71
g2580
sg64
(lp2596
g57
(g58
g59
NtRp2597
(dp2598
g62
(dp2599
g70
I3
ssg71
g2593
sg64
(lp2600
S'/'
asbasbasbag57
(g73
g59
NtRp2601
(dp2602
g62
(dp2603
sg71
g2471
sg64
(lp2604
g57
(g78
g59
NtRp2605
(dp2606
g62
(dp2607
g82
g83
ssg71
g2601
sg64
(lp2608
S'secure'
p2609
asbag57
(g78
g59
NtRp2610
(dp2611
g62
(dp2612
g89
g90
ssg71
g2601
sg64
(lp2613
S':'
asbag57
(g78
g59
NtRp2614
(dp2615
g62
(dp2616
sg71
g2601
sg64
(lp2617
g57
(g58
g59
NtRp2618
(dp2619
g62
(dp2620
g70
I3
ssg71
g2614
sg64
(lp2621
S''
asbasbasbag57
(g73
g59
NtRp2622
(dp2623
g62
(dp2624
sg71
g2471
sg64
(lp2625
g57
(g78
g59
NtRp2626
(dp2627
g62
(dp2628
g82
g83
ssg71
g2622
sg64
(lp2629
S'version'
p2630
asbag57
(g78
g59
NtRp2631
(dp2632
g62
(dp2633
g89
g90
ssg71
g2622
sg64
(lp2634
S':'
asbag57
(g78
g59
NtRp2635
(dp2636
g62
(dp2637
sg71
g2622
sg64
(lp2638
g57
(g58
g59
NtRp2639
(dp2640
g62
(dp2641
g70
I3
ssg71
g2635
sg64
(lp2642
S''
asbasbasbasbasbasbasbasbasbasbasbag57
(g73
g59
NtRp2643
(dp2644
g62
(dp2645
sg71
g2401
sg64
(lp2646
g57
(g78
g59
NtRp2647
(dp2648
g62
(dp2649
g82
g83
ssg71
g2643
sg64
(lp2650
S'delimiters'
p2651
asbag57
(g78
g59
NtRp2652
(dp2653
g62
(dp2654
g89
g90
ssg71
g2643
sg64
(lp2655
S':'
asbag57
(g78
g59
NtRp2656
(dp2657
g62
(dp2658
sg71
g2643
sg64
(lp2659
g57
(g58
g59
NtRp2660
(dp2661
g62
(dp2662
g70
I5
ssg71
g2656
sg64
(lp2663
g57
(g66
g59
NtRp2664
(dp2665
g62
(dp2666
g70
I4
ssg71
Nsg64
(lp2667
g57
(g73
g59
NtRp2668
(dp2669
g62
(dp2670
sg71
g2664
sg64
(lp2671
g57
(g78
g59
NtRp2672
(dp2673
g62
(dp2674
sg71
g2668
sg64
(lp2675
g57
(g58
g59
NtRp2676
(dp2677
g62
(dp2678
g70
I4
ssg71
g2672
sg64
(lp2679
S'{{'
p2680
asbasbasbag57
(g73
g59
NtRp2681
(dp2682
g62
(dp2683
sg71
g2664
sg64
(lp2684
g57
(g78
g59
NtRp2685
(dp2686
g62
(dp2687
sg71
g2681
sg64
(lp2688
g57
(g58
g59
NtRp2689
(dp2690
g62
(dp2691
g70
I4
ssg71
g2685
sg64
(lp2692
S'}}'
p2693
asbasbasbasbasbasbasbag57
(g73
g59
NtRp2694
(dp2695
g62
(dp2696
sg71
g2401
sg64
(lp2697
g57
(g78
g59
NtRp2698
(dp2699
g62
(dp2700
g82
g83
ssg71
g2694
sg64
(lp2701
S'files'
p2702
asbag57
(g78
g59
NtRp2703
(dp2704
g62
(dp2705
g89
g90
ssg71
g2694
sg64
(lp2706
S':'
asbag57
(g78
g59
NtRp2707
(dp2708
g62
(dp2709
sg71
g2694
sg64
(lp2710
g57
(g58
g59
NtRp2711
(dp2712
g62
(dp2713
g70
I5
ssg71
g2707
sg64
(lp2714
g57
(g66
g59
NtRp2715
(dp2716
g62
(dp2717
g70
I4
ssg71
Nsg64
(lp2718
sbasbasbasbag57
(g73
g59
NtRp2719
(dp2720
g62
(dp2721
sg71
g2401
sg64
(lp2722
g57
(g78
g59
NtRp2723
(dp2724
g62
(dp2725
g82
g83
ssg71
g2719
sg64
(lp2726
S'flash'
p2727
asbag57
(g78
g59
NtRp2728
(dp2729
g62
(dp2730
g89
g90
ssg71
g2719
sg64
(lp2731
S':'
asbag57
(g78
g59
NtRp2732
(dp2733
g62
(dp2734
sg71
g2719
sg64
(lp2735
g57
(g58
g59
NtRp2736
(dp2737
g62
(dp2738
g70
I5
ssg71
g2732
sg64
(lp2739
S''
asbasbasbag57
(g73
g59
NtRp2740
(dp2741
g62
(dp2742
sg71
g2401
sg64
(lp2743
g57
(g78
g59
NtRp2744
(dp2745
g62
(dp2746
g82
g83
ssg71
g2740
sg64
(lp2747
S'generic_patterns'
p2748
asbag57
(g78
g59
NtRp2749
(dp2750
g62
(dp2751
g89
g90
ssg71
g2740
sg64
(lp2752
S':'
asbag57
(g78
g59
NtRp2753
(dp2754
g62
(dp2755
sg71
g2740
sg64
(lp2756
g57
(g58
g59
NtRp2757
(dp2758
g62
(dp2759
g70
I5
ssg71
g2753
sg64
(lp2760
g57
(g66
g59
NtRp2761
(dp2762
g62
(dp2763
g70
I4
ssg71
Nsg64
(lp2764
g57
(g73
g59
NtRp2765
(dp2766
g62
(dp2767
sg71
g2761
sg64
(lp2768
g57
(g78
g59
NtRp2769
(dp2770
g62
(dp2771
sg71
g2765
sg64
(lp2772
g57
(g58
g59
NtRp2773
(dp2774
g62
(dp2775
g70
I4
ssg71
g2769
sg64
(lp2776
S'*'
asbasbasbasbasbasbasbag57
(g73
g59
NtRp2777
(dp2778
g62
(dp2779
sg71
g2401
sg64
(lp2780
g57
(g78
g59
NtRp2781
(dp2782
g62
(dp2783
g82
g83
ssg71
g2777
sg64
(lp2784
S'headers'
p2785
asbag57
(g78
g59
NtRp2786
(dp2787
g62
(dp2788
g89
g90
ssg71
g2777
sg64
(lp2789
S':'
asbag57
(g78
g59
NtRp2790
(dp2791
g62
(dp2792
sg71
g2777
sg64
(lp2793
g57
(g58
g59
NtRp2794
(dp2795
g62
(dp2796
g70
I5
ssg71
g2790
sg64
(lp2797
g57
(g66
g59
NtRp2798
(dp2799
g62
(dp2800
g70
I4
ssg71
Nsg64
(lp2801
g57
(g73
g59
NtRp2802
(dp2803
g62
(dp2804
sg71
g2798
sg64
(lp2805
g57
(g78
g59
NtRp2806
(dp2807
g62
(dp2808
g82
g83
ssg71
g2802
sg64
(lp2809
S'Cache-Control'
p2810
asbag57
(g78
g59
NtRp2811
(dp2812
g62
(dp2813
g89
g90
ssg71
g2802
sg64
(lp2814
S':'
asbag57
(g78
g59
NtRp2815
(dp2816
g62
(dp2817
sg71
g2802
sg64
(lp2818
g57
(g58
g59
NtRp2819
(dp2820
g62
(dp2821
g70
I4
ssg71
g2815
sg64
(lp2822
S'no-store, no-cache, must-revalidate, post-check=0, pre-check=0'
p2823
asbasbasbag57
(g73
g59
NtRp2824
(dp2825
g62
(dp2826
sg71
g2798
sg64
(lp2827
g57
(g78
g59
NtRp2828
(dp2829
g62
(dp2830
g82
g83
ssg71
g2824
sg64
(lp2831
S'Content-Type'
p2832
asbag57
(g78
g59
NtRp2833
(dp2834
g62
(dp2835
g89
g90
ssg71
g2824
sg64
(lp2836
S':'
asbag57
(g78
g59
NtRp2837
(dp2838
g62
(dp2839
sg71
g2824
sg64
(lp2840
g57
(g58
g59
NtRp2841
(dp2842
g62
(dp2843
g70
I4
ssg71
g2837
sg64
(lp2844
S'text/html; charset=utf-8'
p2845
asbasbasbag57
(g73
g59
NtRp2846
(dp2847
g62
(dp2848
sg71
g2798
sg64
(lp2849
g57
(g78
g59
NtRp2850
(dp2851
g62
(dp2852
g82
g83
ssg71
g2846
sg64
(lp2853
S'Expires'
p2854
asbag57
(g78
g59
NtRp2855
(dp2856
g62
(dp2857
g89
g90
ssg71
g2846
sg64
(lp2858
S':'
asbag57
(g78
g59
NtRp2859
(dp2860
g62
(dp2861
sg71
g2846
sg64
(lp2862
g57
(g58
g59
NtRp2863
(dp2864
g62
(dp2865
g70
I4
ssg71
g2859
sg64
(lp2866
S'Fri, 26 Oct 2012 16:22:54 GMT'
p2867
asbasbasbag57
(g73
g59
NtRp2868
(dp2869
g62
(dp2870
sg71
g2798
sg64
(lp2871
g57
(g78
g59
NtRp2872
(dp2873
g62
(dp2874
g82
g83
ssg71
g2868
sg64
(lp2875
S'Pragma'
p2876
asbag57
(g78
g59
NtRp2877
(dp2878
g62
(dp2879
g89
g90
ssg71
g2868
sg64
(lp2880
S':'
asbag57
(g78
g59
NtRp2881
(dp2882
g62
(dp2883
sg71
g2868
sg64
(lp2884
g57
(g58
g59
NtRp2885
(dp2886
g62
(dp2887
g70
I4
ssg71
g2881
sg64
(lp2888
S'no-cache'
p2889
asbasbasbag57
(g73
g59
NtRp2890
(dp2891
g62
(dp2892
sg71
g2798
sg64
(lp2893
g57
(g78
g59
NtRp2894
(dp2895
g62
(dp2896
g82
g83
ssg71
g2890
sg64
(lp2897
S'X-Powered-By'
p2898
asbag57
(g78
g59
NtRp2899
(dp2900
g62
(dp2901
g89
g90
ssg71
g2890
sg64
(lp2902
S':'
asbag57
(g78
g59
NtRp2903
(dp2904
g62
(dp2905
sg71
g2890
sg64
(lp2906
g57
(g58
g59
NtRp2907
(dp2908
g62
(dp2909
g70
I4
ssg71
g2903
sg64
(lp2910
S'web2py'
p2911
asbasbasbasbasbasbasbag57
(g73
g59
NtRp2912
(dp2913
g62
(dp2914
sg71
g2401
sg64
(lp2915
g57
(g78
g59
NtRp2916
(dp2917
g62
(dp2918
g82
g83
ssg71
g2912
sg64
(lp2919
S'menu'
p2920
asbag57
(g78
g59
NtRp2921
(dp2922
g62
(dp2923
g89
g90
ssg71
g2912
sg64
(lp2924
S':'
asbag57
(g78
g59
NtRp2925
(dp2926
g62
(dp2927
sg71
g2912
sg64
(lp2928
g57
(g58
g59
NtRp2929
(dp2930
g62
(dp2931
g70
I5
ssg71
g2925
sg64
(lp2932
g57
(g66
g59
NtRp2933
(dp2934
g62
(dp2935
g70
I4
ssg71
Nsg64
(lp2936
g57
(g73
g59
NtRp2937
(dp2938
g62
(dp2939
sg71
g2933
sg64
(lp2940
g57
(g78
g59
NtRp2941
(dp2942
g62
(dp2943
sg71
g2937
sg64
(lp2944
g57
(g58
g59
NtRp2945
(dp2946
g62
(dp2947
g70
I4
ssg71
g2941
sg64
(lp2948
g57
(g66
g59
NtRp2949
(dp2950
g62
(dp2951
g70
I3
ssg71
Nsg64
(lp2952
g57
(g73
g59
NtRp2953
(dp2954
g62
(dp2955
sg71
g2949
sg64
(lp2956
g57
(g78
g59
NtRp2957
(dp2958
g62
(dp2959
sg71
g2953
sg64
(lp2960
g57
(g58
g59
NtRp2961
(dp2962
g62
(dp2963
g70
I3
ssg71
g2957
sg64
(lp2964
cgluon.languages
lazyT_unpickle
p2965
(S't\x04\x00\x00\x00Home'
tRp2966
asbasbasbag57
(g73
g59
NtRp2967
(dp2968
g62
(dp2969
sg71
g2949
sg64
(lp2970
g57
(g78
g59
NtRp2971
(dp2972
g62
(dp2973
sg71
g2967
sg64
(lp2974
g57
(g58
g59
NtRp2975
(dp2976
g62
(dp2977
g70
I3
ssg71
g2971
sg64
(lp2978
g100
asbasbasbag57
(g73
g59
NtRp2979
(dp2980
g62
(dp2981
sg71
g2949
sg64
(lp2982
g57
(g78
g59
NtRp2983
(dp2984
g62
(dp2985
sg71
g2979
sg64
(lp2986
g57
(g58
g59
NtRp2987
(dp2988
g62
(dp2989
g70
I3
ssg71
g2983
sg64
(lp2990
S'/Graficos/default/index'
p2991
asbasbasbag57
(g73
g59
NtRp2992
(dp2993
g62
(dp2994
sg71
g2949
sg64
(lp2995
g57
(g78
g59
NtRp2996
(dp2997
g62
(dp2998
sg71
g2992
sg64
(lp2999
g57
(g58
g59
NtRp3000
(dp3001
g62
(dp3002
g70
I3
ssg71
g2996
sg64
(lp3003
g57
(g66
g59
NtRp3004
(dp3005
g62
(dp3006
g70
I2
ssg71
Nsg64
(lp3007
sbasbasbasbasbasbasbasbag57
(g73
g59
NtRp3008
(dp3009
g62
(dp3010
sg71
g2933
sg64
(lp3011
g57
(g78
g59
NtRp3012
(dp3013
g62
(dp3014
sg71
g3008
sg64
(lp3015
g57
(g58
g59
NtRp3016
(dp3017
g62
(dp3018
g70
I4
ssg71
g3012
sg64
(lp3019
g57
(g66
g59
NtRp3020
(dp3021
g62
(dp3022
g70
I3
ssg71
Nsg64
(lp3023
g57
(g73
g59
NtRp3024
(dp3025
g62
(dp3026
sg71
g3020
sg64
(lp3027
g57
(g78
g59
NtRp3028
(dp3029
g62
(dp3030
sg71
g3024
sg64
(lp3031
g57
(g58
g59
NtRp3032
(dp3033
g62
(dp3034
g70
I3
ssg71
g3028
sg64
(lp3035
g57
(cgluon.html
SPAN
p3036
g59
NtRp3037
(dp3038
g62
(dp3039
g82
S'color:yellow'
p3040
ssg71
Nsg64
(lp3041
g2911
asbasbasbasbag57
(g73
g59
NtRp3042
(dp3043
g62
(dp3044
sg71
g3020
sg64
(lp3045
g57
(g78
g59
NtRp3046
(dp3047
g62
(dp3048
sg71
g3042
sg64
(lp3049
g57
(g58
g59
NtRp3050
(dp3051
g62
(dp3052
g70
I3
ssg71
g3046
sg64
(lp3053
g100
asbasbasbag57
(g73
g59
NtRp3054
(dp3055
g62
(dp3056
sg71
g3020
sg64
(lp3057
g57
(g78
g59
NtRp3058
(dp3059
g62
(dp3060
sg71
g3054
sg64
(lp3061
g57
(g58
g59
NtRp3062
(dp3063
g62
(dp3064
g70
I3
ssg71
g3058
sg64
(lp3065
S'None'
p3066
asbasbasbag57
(g73
g59
NtRp3067
(dp3068
g62
(dp3069
sg71
g3020
sg64
(lp3070
g57
(g78
g59
NtRp3071
(dp3072
g62
(dp3073
sg71
g3067
sg64
(lp3074
g57
(g58
g59
NtRp3075
(dp3076
g62
(dp3077
g70
I3
ssg71
g3071
sg64
(lp3078
g57
(g66
g59
NtRp3079
(dp3080
g62
(dp3081
g70
I2
ssg71
Nsg64
(lp3082
g57
(g73
g59
NtRp3083
(dp3084
g62
(dp3085
sg71
g3079
sg64
(lp3086
g57
(g78
g59
NtRp3087
(dp3088
g62
(dp3089
sg71
g3083
sg64
(lp3090
g57
(g58
g59
NtRp3091
(dp3092
g62
(dp3093
g70
I2
ssg71
g3087
sg64
(lp3094
g57
(g66
g59
NtRp3095
(dp3096
g62
(dp3097
g70
I1
ssg71
Nsg64
(lp3098
g57
(g73
g59
NtRp3099
(dp3100
g62
(dp3101
sg71
g3095
sg64
(lp3102
g57
(g78
g59
NtRp3103
(dp3104
g62
(dp3105
sg71
g3099
sg64
(lp3106
g57
(g58
g59
NtRp3107
(dp3108
g62
(dp3109
g70
I1
ssg71
g3103
sg64
(lp3110
g2965
(S's\x08\x00\x00\x00My Sites'
tRp3111
asbasbasbag57
(g73
g59
NtRp3112
(dp3113
g62
(dp3114
sg71
g3095
sg64
(lp3115
g57
(g78
g59
NtRp3116
(dp3117
g62
(dp3118
sg71
g3112
sg64
(lp3119
g57
(g58
g59
NtRp3120
(dp3121
g62
(dp3122
g70
I1
ssg71
g3116
sg64
(lp3123
I00
asbasbasbag57
(g73
g59
NtRp3124
(dp3125
g62
(dp3126
sg71
g3095
sg64
(lp3127
g57
(g78
g59
NtRp3128
(dp3129
g62
(dp3130
sg71
g3124
sg64
(lp3131
g57
(g58
g59
NtRp3132
(dp3133
g62
(dp3134
g70
I1
ssg71
g3128
sg64
(lp3135
S'/admin/default/site'
p3136
asbasbasbasbasbasbasbag57
(g73
g59
NtRp3137
(dp3138
g62
(dp3139
sg71
g3079
sg64
(lp3140
g57
(g78
g59
NtRp3141
(dp3142
g62
(dp3143
sg71
g3137
sg64
(lp3144
g57
(g58
g59
NtRp3145
(dp3146
g62
(dp3147
g70
I2
ssg71
g3141
sg64
(lp3148
g57
(g66
g59
NtRp3149
(dp3150
g62
(dp3151
g70
I1
ssg71
Nsg64
(lp3152
g57
(g73
g59
NtRp3153
(dp3154
g62
(dp3155
sg71
g3149
sg64
(lp3156
g57
(g78
g59
NtRp3157
(dp3158
g62
(dp3159
sg71
g3153
sg64
(lp3160
g57
(g58
g59
NtRp3161
(dp3162
g62
(dp3163
g70
I1
ssg71
g3157
sg64
(lp3164
g2965
(S's\x08\x00\x00\x00This App'
tRp3165
asbasbasbag57
(g73
g59
NtRp3166
(dp3167
g62
(dp3168
sg71
g3149
sg64
(lp3169
g57
(g78
g59
NtRp3170
(dp3171
g62
(dp3172
sg71
g3166
sg64
(lp3173
g57
(g58
g59
NtRp3174
(dp3175
g62
(dp3176
g70
I1
ssg71
g3170
sg64
(lp3177
I00
asbasbasbag57
(g73
g59
NtRp3178
(dp3179
g62
(dp3180
sg71
g3149
sg64
(lp3181
g57
(g78
g59
NtRp3182
(dp3183
g62
(dp3184
sg71
g3178
sg64
(lp3185
g57
(g58
g59
NtRp3186
(dp3187
g62
(dp3188
g70
I1
ssg71
g3182
sg64
(lp3189
S'/admin/default/design/Graficos'
p3190
asbasbasbag57
(g73
g59
NtRp3191
(dp3192
g62
(dp3193
sg71
g3149
sg64
(lp3194
g57
(g78
g59
NtRp3195
(dp3196
g62
(dp3197
sg71
g3191
sg64
(lp3198
g57
(g58
g59
NtRp3199
(dp3200
g62
(dp3201
g70
I1
ssg71
g3195
sg64
(lp3202
(lp3203
(g2965
(S't\x0b\x00\x00\x00Controlador'
tRp3204
I00
S'/admin/default/edit/Graficos/controllers/default.py'
tp3205
a(g2965
(S's\x0e\x00\x00\x00Visualiza\xc3\xa7\xc3\xa3o'
tRp3206
I00
S'/admin/default/edit/Graficos/views/default/index.html'
tp3207
a(g2965
(S't\x06\x00\x00\x00Layout'
tRp3208
I00
S'/admin/default/edit/Graficos/views/layout.html'
tp3209
a(g2965
(S't\n\x00\x00\x00Stylesheet'
tRp3210
I00
S'/admin/default/edit/Graficos/static/css/web2py.css'
tp3211
a(g2965
(S's\t\x00\x00\x00Modelo BD'
tRp3212
I00
S'/admin/default/edit/Graficos/models/db.py'
tp3213
a(g2965
(S's\x0e\x00\x00\x00Modelo de Menu'
tRp3214
I00
S'/admin/default/edit/Graficos/models/menu.py'
tp3215
a(g2965
(S's\x0e\x00\x00\x00Banco de dados'
tRp3216
I00
S'/Graficos/appadmin/index'
tp3217
a(g2965
(S't\x06\x00\x00\x00Errors'
tRp3218
I00
S'/admin/default/errors/Graficos'
tp3219
a(g2965
(S't\x05\x00\x00\x00About'
tRp3220
I00
S'/admin/default/about/Graficos'
tp3221
aasbasbasbasbasbasbasbag57
(g73
g59
NtRp3222
(dp3223
g62
(dp3224
sg71
g3079
sg64
(lp3225
g57
(g78
g59
NtRp3226
(dp3227
g62
(dp3228
sg71
g3222
sg64
(lp3229
g57
(g58
g59
NtRp3230
(dp3231
g62
(dp3232
g70
I2
ssg71
g3226
sg64
(lp3233
g57
(g66
g59
NtRp3234
(dp3235
g62
(dp3236
g70
I1
ssg71
Nsg64
(lp3237
g57
(g73
g59
NtRp3238
(dp3239
g62
(dp3240
sg71
g3234
sg64
(lp3241
g57
(g78
g59
NtRp3242
(dp3243
g62
(dp3244
sg71
g3238
sg64
(lp3245
g57
(g58
g59
NtRp3246
(dp3247
g62
(dp3248
g70
I1
ssg71
g3242
sg64
(lp3249
S'web2py.com'
p3250
asbasbasbag57
(g73
g59
NtRp3251
(dp3252
g62
(dp3253
sg71
g3234
sg64
(lp3254
g57
(g78
g59
NtRp3255
(dp3256
g62
(dp3257
sg71
g3251
sg64
(lp3258
g57
(g58
g59
NtRp3259
(dp3260
g62
(dp3261
g70
I1
ssg71
g3255
sg64
(lp3262
I00
asbasbasbag57
(g73
g59
NtRp3263
(dp3264
g62
(dp3265
sg71
g3234
sg64
(lp3266
g57
(g78
g59
NtRp3267
(dp3268
g62
(dp3269
sg71
g3263
sg64
(lp3270
g57
(g58
g59
NtRp3271
(dp3272
g62
(dp3273
g70
I1
ssg71
g3267
sg64
(lp3274
S'http://www.web2py.com'
p3275
asbasbasbag57
(g73
g59
NtRp3276
(dp3277
g62
(dp3278
sg71
g3234
sg64
(lp3279
g57
(g78
g59
NtRp3280
(dp3281
g62
(dp3282
sg71
g3276
sg64
(lp3283
g57
(g58
g59
NtRp3284
(dp3285
g62
(dp3286
g70
I1
ssg71
g3280
sg64
(lp3287
(lp3288
(g2965
(S't\x08\x00\x00\x00Download'
tRp3289
I00
S'http://www.web2py.com/examples/default/download'
p3290
tp3291
a(g2965
(S't\x07\x00\x00\x00Support'
tRp3292
I00
S'http://www.web2py.com/examples/default/support'
p3293
tp3294
a(g2965
(S't\x04\x00\x00\x00Demo'
tRp3295
I00
S'http://web2py.com/demo_admin'
p3296
tp3297
a(g2965
(S's\x0e\x00\x00\x00Quick Examples'
tRp3298
I00
S'http://web2py.com/examples/default/examples'
p3299
tp3300
a(g2965
(S't\x03\x00\x00\x00FAQ'
tRp3301
I00
S'http://web2py.com/AlterEgo'
p3302
tp3303
a(g2965
(S't\x06\x00\x00\x00Videos'
tRp3304
I00
S'http://www.web2py.com/examples/default/videos/'
p3305
tp3306
a(g2965
(S's\x11\x00\x00\x00Free Applications'
tRp3307
I00
S'http://web2py.com/appliances'
p3308
tp3309
a(g2965
(S't\x07\x00\x00\x00Plugins'
tRp3310
I00
S'http://web2py.com/plugins'
p3311
tp3312
a(g2965
(S't\x07\x00\x00\x00Layouts'
tRp3313
I00
S'http://web2py.com/layouts'
p3314
tp3315
a(g2965
(S't\x07\x00\x00\x00Recipes'
tRp3316
I00
S'http://web2pyslices.com/'
p3317
tp3318
a(g2965
(S't\x08\x00\x00\x00Semantic'
tRp3319
I00
S'http://web2py.com/semantic'
p3320
tp3321
aasbasbasbasbasbasbasbag57
(g73
g59
NtRp3322
(dp3323
g62
(dp3324
sg71
g3079
sg64
(lp3325
g57
(g78
g59
NtRp3326
(dp3327
g62
(dp3328
sg71
g3322
sg64
(lp3329
g57
(g58
g59
NtRp3330
(dp3331
g62
(dp3332
g70
I2
ssg71
g3326
sg64
(lp3333
g57
(g66
g59
NtRp3334
(dp3335
g62
(dp3336
g70
I1
ssg71
Nsg64
(lp3337
g57
(g73
g59
NtRp3338
(dp3339
g62
(dp3340
sg71
g3334
sg64
(lp3341
g57
(g78
g59
NtRp3342
(dp3343
g62
(dp3344
sg71
g3338
sg64
(lp3345
g57
(g58
g59
NtRp3346
(dp3347
g62
(dp3348
g70
I1
ssg71
g3342
sg64
(lp3349
g2965
(S't\r\x00\x00\x00Documentation'
tRp3350
asbasbasbag57
(g73
g59
NtRp3351
(dp3352
g62
(dp3353
sg71
g3334
sg64
(lp3354
g57
(g78
g59
NtRp3355
(dp3356
g62
(dp3357
sg71
g3351
sg64
(lp3358
g57
(g58
g59
NtRp3359
(dp3360
g62
(dp3361
g70
I1
ssg71
g3355
sg64
(lp3362
I00
asbasbasbag57
(g73
g59
NtRp3363
(dp3364
g62
(dp3365
sg71
g3334
sg64
(lp3366
g57
(g78
g59
NtRp3367
(dp3368
g62
(dp3369
sg71
g3363
sg64
(lp3370
g57
(g58
g59
NtRp3371
(dp3372
g62
(dp3373
g70
I1
ssg71
g3367
sg64
(lp3374
S'http://www.web2py.com/book'
p3375
asbasbasbag57
(g73
g59
NtRp3376
(dp3377
g62
(dp3378
sg71
g3334
sg64
(lp3379
g57
(g78
g59
NtRp3380
(dp3381
g62
(dp3382
sg71
g3376
sg64
(lp3383
g57
(g58
g59
NtRp3384
(dp3385
g62
(dp3386
g70
I1
ssg71
g3380
sg64
(lp3387
(lp3388
(g2965
(S't\x07\x00\x00\x00Preface'
tRp3389
I00
S'http://www.web2py.com/book/default/chapter/00'
p3390
tp3391
a(g2965
(S't\x0c\x00\x00\x00Introduction'
tRp3392
I00
S'http://www.web2py.com/book/default/chapter/01'
p3393
tp3394
a(g2965
(S't\x06\x00\x00\x00Python'
tRp3395
I00
S'http://www.web2py.com/book/default/chapter/02'
p3396
tp3397
a(g2965
(S't\x08\x00\x00\x00Overview'
tRp3398
I00
S'http://www.web2py.com/book/default/chapter/03'
p3399
tp3400
a(g2965
(S's\x08\x00\x00\x00The Core'
tRp3401
I00
S'http://www.web2py.com/book/default/chapter/04'
p3402
tp3403
a(g2965
(S's\t\x00\x00\x00The Views'
tRp3404
I00
S'http://www.web2py.com/book/default/chapter/05'
p3405
tp3406
a(g2965
(S's\x0e\x00\x00\x00Banco de dados'
tRp3407
I00
S'http://www.web2py.com/book/default/chapter/06'
p3408
tp3409
a(g2965
(S's\x14\x00\x00\x00Forms and Validators'
tRp3410
I00
S'http://www.web2py.com/book/default/chapter/07'
p3411
tp3412
a(g2965
(S's\r\x00\x00\x00Email and SMS'
tRp3413
I00
S'http://www.web2py.com/book/default/chapter/08'
p3414
tp3415
a(g2965
(S's\x0e\x00\x00\x00Access Control'
tRp3416
I00
S'http://www.web2py.com/book/default/chapter/09'
p3417
tp3418
a(g2965
(S't\x08\x00\x00\x00Services'
tRp3419
I00
S'http://www.web2py.com/book/default/chapter/10'
p3420
tp3421
a(g2965
(S's\x0c\x00\x00\x00Ajax Recipes'
tRp3422
I00
S'http://www.web2py.com/book/default/chapter/11'
p3423
tp3424
a(g2965
(S's\x16\x00\x00\x00Components and Plugins'
tRp3425
I00
S'http://www.web2py.com/book/default/chapter/12'
p3426
tp3427
a(g2965
(S's\x12\x00\x00\x00Deployment Recipes'
tRp3428
I00
S'http://www.web2py.com/book/default/chapter/13'
p3429
tp3430
a(g2965
(S's\r\x00\x00\x00Other Recipes'
tRp3431
I00
S'http://www.web2py.com/book/default/chapter/14'
p3432
tp3433
a(g2965
(S's\r\x00\x00\x00Buy this book'
tRp3434
I00
S'http://stores.lulu.com/web2py'
p3435
tp3436
aasbasbasbasbasbasbasbag57
(g73
g59
NtRp3437
(dp3438
g62
(dp3439
sg71
g3079
sg64
(lp3440
g57
(g78
g59
NtRp3441
(dp3442
g62
(dp3443
sg71
g3437
sg64
(lp3444
g57
(g58
g59
NtRp3445
(dp3446
g62
(dp3447
g70
I2
ssg71
g3441
sg64
(lp3448
g57
(g66
g59
NtRp3449
(dp3450
g62
(dp3451
g70
I1
ssg71
Nsg64
(lp3452
g57
(g73
g59
NtRp3453
(dp3454
g62
(dp3455
sg71
g3449
sg64
(lp3456
g57
(g78
g59
NtRp3457
(dp3458
g62
(dp3459
sg71
g3453
sg64
(lp3460
g57
(g58
g59
NtRp3461
(dp3462
g62
(dp3463
g70
I1
ssg71
g3457
sg64
(lp3464
g2965
(S't\t\x00\x00\x00Community'
tRp3465
asbasbasbag57
(g73
g59
NtRp3466
(dp3467
g62
(dp3468
sg71
g3449
sg64
(lp3469
g57
(g78
g59
NtRp3470
(dp3471
g62
(dp3472
sg71
g3466
sg64
(lp3473
g57
(g58
g59
NtRp3474
(dp3475
g62
(dp3476
g70
I1
ssg71
g3470
sg64
(lp3477
I00
asbasbasbag57
(g73
g59
NtRp3478
(dp3479
g62
(dp3480
sg71
g3449
sg64
(lp3481
g57
(g78
g59
NtRp3482
(dp3483
g62
(dp3484
sg71
g3478
sg64
(lp3485
g57
(g58
g59
NtRp3486
(dp3487
g62
(dp3488
g70
I1
ssg71
g3482
sg64
(lp3489
Nasbasbasbag57
(g73
g59
NtRp3490
(dp3491
g62
(dp3492
sg71
g3449
sg64
(lp3493
g57
(g78
g59
NtRp3494
(dp3495
g62
(dp3496
sg71
g3490
sg64
(lp3497
g57
(g58
g59
NtRp3498
(dp3499
g62
(dp3500
g70
I1
ssg71
g3494
sg64
(lp3501
(lp3502
(g2965
(S't\x06\x00\x00\x00Groups'
tRp3503
I00
S'http://www.web2py.com/examples/default/usergroups'
p3504
tp3505
a(g2965
(S't\x07\x00\x00\x00Twitter'
tRp3506
I00
S'http://twitter.com/web2py'
p3507
tp3508
a(g2965
(S's\t\x00\x00\x00Live Chat'
tRp3509
I00
S'http://webchat.freenode.net/?channels=web2py'
p3510
tp3511
aasbasbasbasbasbasbasbag57
(g73
g59
NtRp3512
(dp3513
g62
(dp3514
sg71
g3079
sg64
(lp3515
g57
(g78
g59
NtRp3516
(dp3517
g62
(dp3518
sg71
g3512
sg64
(lp3519
g57
(g58
g59
NtRp3520
(dp3521
g62
(dp3522
g70
I2
ssg71
g3516
sg64
(lp3523
g57
(g66
g59
NtRp3524
(dp3525
g62
(dp3526
g70
I1
ssg71
Nsg64
(lp3527
g57
(g73
g59
NtRp3528
(dp3529
g62
(dp3530
sg71
g3524
sg64
(lp3531
g57
(g78
g59
NtRp3532
(dp3533
g62
(dp3534
sg71
g3528
sg64
(lp3535
g57
(g58
g59
NtRp3536
(dp3537
g62
(dp3538
g70
I1
ssg71
g3532
sg64
(lp3539
g2965
(S't\x07\x00\x00\x00Plugins'
tRp3540
asbasbasbag57
(g73
g59
NtRp3541
(dp3542
g62
(dp3543
sg71
g3524
sg64
(lp3544
g57
(g78
g59
NtRp3545
(dp3546
g62
(dp3547
sg71
g3541
sg64
(lp3548
g57
(g58
g59
NtRp3549
(dp3550
g62
(dp3551
g70
I1
ssg71
g3545
sg64
(lp3552
I00
asbasbasbag57
(g73
g59
NtRp3553
(dp3554
g62
(dp3555
sg71
g3524
sg64
(lp3556
g57
(g78
g59
NtRp3557
(dp3558
g62
(dp3559
sg71
g3553
sg64
(lp3560
g57
(g58
g59
NtRp3561
(dp3562
g62
(dp3563
g70
I1
ssg71
g3557
sg64
(lp3564
Nasbasbasbag57
(g73
g59
NtRp3565
(dp3566
g62
(dp3567
sg71
g3524
sg64
(lp3568
g57
(g78
g59
NtRp3569
(dp3570
g62
(dp3571
sg71
g3565
sg64
(lp3572
g57
(g58
g59
NtRp3573
(dp3574
g62
(dp3575
g70
I1
ssg71
g3569
sg64
(lp3576
(lp3577
(S'plugin_wiki'
p3578
I00
S'http://web2py.com/examples/default/download'
p3579
tp3580
a(g2965
(S's\r\x00\x00\x00Other Plugins'
tRp3581
I00
g3311
tp3582
a(g2965
(S's\x0e\x00\x00\x00Layout Plugins'
tRp3583
I00
g3314
tp3584
aasbasbasbasbasbasbasbasbasbasbasbasbasbasbasbasbasbasbasbag57
(g73
g59
NtRp3585
(dp3586
g62
(dp3587
sg71
g2401
sg64
(lp3588
g57
(g78
g59
NtRp3589
(dp3590
g62
(dp3591
g82
g83
ssg71
g3585
sg64
(lp3592
S'meta'
p3593
asbag57
(g78
g59
NtRp3594
(dp3595
g62
(dp3596
g89
g90
ssg71
g3585
sg64
(lp3597
S':'
asbag57
(g78
g59
NtRp3598
(dp3599
g62
(dp3600
sg71
g3585
sg64
(lp3601
g57
(g58
g59
NtRp3602
(dp3603
g62
(dp3604
g70
I5
ssg71
g3598
sg64
(lp3605
g57
(g66
g59
NtRp3606
(dp3607
g62
(dp3608
g70
I4
ssg71
Nsg64
(lp3609
g57
(g73
g59
NtRp3610
(dp3611
g62
(dp3612
sg71
g3606
sg64
(lp3613
g57
(g78
g59
NtRp3614
(dp3615
g62
(dp3616
g82
g83
ssg71
g3610
sg64
(lp3617
S'author'
p3618
asbag57
(g78
g59
NtRp3619
(dp3620
g62
(dp3621
g89
g90
ssg71
g3610
sg64
(lp3622
S':'
asbag57
(g78
g59
NtRp3623
(dp3624
g62
(dp3625
sg71
g3610
sg64
(lp3626
g57
(g58
g59
NtRp3627
(dp3628
g62
(dp3629
g70
I4
ssg71
g3623
sg64
(lp3630
S'Your Name <you@example.com>'
p3631
asbasbasbag57
(g73
g59
NtRp3632
(dp3633
g62
(dp3634
sg71
g3606
sg64
(lp3635
g57
(g78
g59
NtRp3636
(dp3637
g62
(dp3638
g82
g83
ssg71
g3632
sg64
(lp3639
S'copyright'
p3640
asbag57
(g78
g59
NtRp3641
(dp3642
g62
(dp3643
g89
g90
ssg71
g3632
sg64
(lp3644
S':'
asbag57
(g78
g59
NtRp3645
(dp3646
g62
(dp3647
sg71
g3632
sg64
(lp3648
g57
(g58
g59
NtRp3649
(dp3650
g62
(dp3651
g70
I4
ssg71
g3645
sg64
(lp3652
S'Copyright 2011'
p3653
asbasbasbag57
(g73
g59
NtRp3654
(dp3655
g62
(dp3656
sg71
g3606
sg64
(lp3657
g57
(g78
g59
NtRp3658
(dp3659
g62
(dp3660
g82
g83
ssg71
g3654
sg64
(lp3661
S'description'
p3662
asbag57
(g78
g59
NtRp3663
(dp3664
g62
(dp3665
g89
g90
ssg71
g3654
sg64
(lp3666
S':'
asbag57
(g78
g59
NtRp3667
(dp3668
g62
(dp3669
sg71
g3654
sg64
(lp3670
g57
(g58
g59
NtRp3671
(dp3672
g62
(dp3673
g70
I4
ssg71
g3667
sg64
(lp3674
S'a cool new app'
p3675
asbasbasbag57
(g73
g59
NtRp3676
(dp3677
g62
(dp3678
sg71
g3606
sg64
(lp3679
g57
(g78
g59
NtRp3680
(dp3681
g62
(dp3682
g82
g83
ssg71
g3676
sg64
(lp3683
S'generator'
p3684
asbag57
(g78
g59
NtRp3685
(dp3686
g62
(dp3687
g89
g90
ssg71
g3676
sg64
(lp3688
S':'
asbag57
(g78
g59
NtRp3689
(dp3690
g62
(dp3691
sg71
g3676
sg64
(lp3692
g57
(g58
g59
NtRp3693
(dp3694
g62
(dp3695
g70
I4
ssg71
g3689
sg64
(lp3696
S'Web2py Web Framework'
p3697
asbasbasbag57
(g73
g59
NtRp3698
(dp3699
g62
(dp3700
sg71
g3606
sg64
(lp3701
g57
(g78
g59
NtRp3702
(dp3703
g62
(dp3704
g82
g83
ssg71
g3698
sg64
(lp3705
S'keywords'
p3706
asbag57
(g78
g59
NtRp3707
(dp3708
g62
(dp3709
g89
g90
ssg71
g3698
sg64
(lp3710
S':'
asbag57
(g78
g59
NtRp3711
(dp3712
g62
(dp3713
sg71
g3698
sg64
(lp3714
g57
(g58
g59
NtRp3715
(dp3716
g62
(dp3717
g70
I4
ssg71
g3711
sg64
(lp3718
S'web2py, python, framework'
p3719
asbasbasbasbasbasbasbag57
(g73
g59
NtRp3720
(dp3721
g62
(dp3722
sg71
g2401
sg64
(lp3723
g57
(g78
g59
NtRp3724
(dp3725
g62
(dp3726
g82
g83
ssg71
g3720
sg64
(lp3727
S'postprocessing'
p3728
asbag57
(g78
g59
NtRp3729
(dp3730
g62
(dp3731
g89
g90
ssg71
g3720
sg64
(lp3732
S':'
asbag57
(g78
g59
NtRp3733
(dp3734
g62
(dp3735
sg71
g3720
sg64
(lp3736
g57
(g58
g59
NtRp3737
(dp3738
g62
(dp3739
g70
I5
ssg71
g3733
sg64
(lp3740
g57
(g66
g59
NtRp3741
(dp3742
g62
(dp3743
g70
I4
ssg71
Nsg64
(lp3744
sbasbasbasbag57
(g73
g59
NtRp3745
(dp3746
g62
(dp3747
sg71
g2401
sg64
(lp3748
g57
(g78
g59
NtRp3749
(dp3750
g62
(dp3751
g82
g83
ssg71
g3745
sg64
(lp3752
S'session_filename'
p3753
asbag57
(g78
g59
NtRp3754
(dp3755
g62
(dp3756
g89
g90
ssg71
g3745
sg64
(lp3757
S':'
asbag57
(g78
g59
NtRp3758
(dp3759
g62
(dp3760
sg71
g3745
sg64
(lp3761
g57
(g58
g59
NtRp3762
(dp3763
g62
(dp3764
g70
I5
ssg71
g3758
sg64
(lp3765
S'c:\\python27\\web2py\\applications\\Graficos\\sessions\\127.0.0.1-6fb6e458-0f70-4cbb-9d7a-dca96f8f34c3'
p3766
asbasbasbag57
(g73
g59
NtRp3767
(dp3768
g62
(dp3769
sg71
g2401
sg64
(lp3770
g57
(g78
g59
NtRp3771
(dp3772
g62
(dp3773
g82
g83
ssg71
g3767
sg64
(lp3774
S'session_id'
p3775
asbag57
(g78
g59
NtRp3776
(dp3777
g62
(dp3778
g89
g90
ssg71
g3767
sg64
(lp3779
S':'
asbag57
(g78
g59
NtRp3780
(dp3781
g62
(dp3782
sg71
g3767
sg64
(lp3783
g57
(g58
g59
NtRp3784
(dp3785
g62
(dp3786
g70
I5
ssg71
g3780
sg64
(lp3787
S'127.0.0.1-6fb6e458-0f70-4cbb-9d7a-dca96f8f34c3'
p3788
asbasbasbag57
(g73
g59
NtRp3789
(dp3790
g62
(dp3791
sg71
g2401
sg64
(lp3792
g57
(g78
g59
NtRp3793
(dp3794
g62
(dp3795
g82
g83
ssg71
g3789
sg64
(lp3796
S'session_id_name'
p3797
asbag57
(g78
g59
NtRp3798
(dp3799
g62
(dp3800
g89
g90
ssg71
g3789
sg64
(lp3801
S':'
asbag57
(g78
g59
NtRp3802
(dp3803
g62
(dp3804
sg71
g3789
sg64
(lp3805
g57
(g58
g59
NtRp3806
(dp3807
g62
(dp3808
g70
I5
ssg71
g3802
sg64
(lp3809
g2458
asbasbasbag57
(g73
g59
NtRp3810
(dp3811
g62
(dp3812
sg71
g2401
sg64
(lp3813
g57
(g78
g59
NtRp3814
(dp3815
g62
(dp3816
g82
g83
ssg71
g3810
sg64
(lp3817
S'session_new'
p3818
asbag57
(g78
g59
NtRp3819
(dp3820
g62
(dp3821
g89
g90
ssg71
g3810
sg64
(lp3822
S':'
asbag57
(g78
g59
NtRp3823
(dp3824
g62
(dp3825
sg71
g3810
sg64
(lp3826
g57
(g58
g59
NtRp3827
(dp3828
g62
(dp3829
g70
I5
ssg71
g3823
sg64
(lp3830
g1049
asbasbasbag57
(g73
g59
NtRp3831
(dp3832
g62
(dp3833
sg71
g2401
sg64
(lp3834
g57
(g78
g59
NtRp3835
(dp3836
g62
(dp3837
g82
g83
ssg71
g3831
sg64
(lp3838
S'status'
p3839
asbag57
(g78
g59
NtRp3840
(dp3841
g62
(dp3842
g89
g90
ssg71
g3831
sg64
(lp3843
S':'
asbag57
(g78
g59
NtRp3844
(dp3845
g62
(dp3846
sg71
g3831
sg64
(lp3847
g57
(g58
g59
NtRp3848
(dp3849
g62
(dp3850
g70
I5
ssg71
g3844
sg64
(lp3851
S'200'
p3852
asbasbasbag57
(g73
g59
NtRp3853
(dp3854
g62
(dp3855
sg71
g2401
sg64
(lp3856
g57
(g78
g59
NtRp3857
(dp3858
g62
(dp3859
g82
g83
ssg71
g3853
sg64
(lp3860
S'subtitle'
p3861
asbag57
(g78
g59
NtRp3862
(dp3863
g62
(dp3864
g89
g90
ssg71
g3853
sg64
(lp3865
S':'
asbag57
(g78
g59
NtRp3866
(dp3867
g62
(dp3868
sg71
g3853
sg64
(lp3869
g57
(g58
g59
NtRp3870
(dp3871
g62
(dp3872
g70
I5
ssg71
g3866
sg64
(lp3873
g2965
(S's\x0f\x00\x00\x00Personalize-me!'
tRp3874
asbasbasbag57
(g73
g59
NtRp3875
(dp3876
g62
(dp3877
sg71
g2401
sg64
(lp3878
g57
(g78
g59
NtRp3879
(dp3880
g62
(dp3881
g82
g83
ssg71
g3875
sg64
(lp3882
S'title'
p3883
asbag57
(g78
g59
NtRp3884
(dp3885
g62
(dp3886
g89
g90
ssg71
g3875
sg64
(lp3887
S':'
asbag57
(g78
g59
NtRp3888
(dp3889
g62
(dp3890
sg71
g3875
sg64
(lp3891
g57
(g58
g59
NtRp3892
(dp3893
g62
(dp3894
g70
I5
ssg71
g3888
sg64
(lp3895
S'Graficos'
p3896
asbasbasbag57
(g73
g59
NtRp3897
(dp3898
g62
(dp3899
sg71
g2401
sg64
(lp3900
g57
(g78
g59
NtRp3901
(dp3902
g62
(dp3903
g82
g83
ssg71
g3897
sg64
(lp3904
g1713
asbag57
(g78
g59
NtRp3905
(dp3906
g62
(dp3907
g89
g90
ssg71
g3897
sg64
(lp3908
S':'
asbag57
(g78
g59
NtRp3909
(dp3910
g62
(dp3911
sg71
g3897
sg64
(lp3912
g57
(g58
g59
NtRp3913
(dp3914
g62
(dp3915
g70
I5
ssg71
g3909
sg64
(lp3916
g1726
asbasbasbag57
(g73
g59
NtRp3917
(dp3918
g62
(dp3919
sg71
g2401
sg64
(lp3920
g57
(g78
g59
NtRp3921
(dp3922
g62
(dp3923
g82
g83
ssg71
g3917
sg64
(lp3924
S'view'
p3925
asbag57
(g78
g59
NtRp3926
(dp3927
g62
(dp3928
g89
g90
ssg71
g3917
sg64
(lp3929
S':'
asbag57
(g78
g59
NtRp3930
(dp3931
g62
(dp3932
sg71
g3917
sg64
(lp3933
g57
(g58
g59
NtRp3934
(dp3935
g62
(dp3936
g70
I5
ssg71
g3930
sg64
(lp3937
S'default/index.html'
p3938
asbasbasbasbasbsS'locals'
p3939
(dp3940
S'chart1'
p3941
S"'$(function () {\\n    \\n    /**\\n     * Get the curr...h.sin( (t*d-s)*(2*Math.PI)/p ) + c + b;\\n    }\\n});'"
p3942
sssS'traceback'
p3943
S'Traceback (most recent call last):\n  File "c:\\python27\\web2py\\gluon\\restricted.py", line 205, in restricted\n    exec ccode in environment\n  File "c:\\python27\\web2py\\applications\\Graficos\\controllers/default.py", line 79, in <module>\n  File "c:\\python27\\web2py\\gluon\\globals.py", line 173, in <lambda>\n    self._caller = lambda f: f()\n  File "c:\\python27\\web2py\\applications\\Graficos\\controllers/default.py", line 14, in index\n    chart2 = chart(\'pie\', \'container10\')\nNameError: global name \'chart\' is not defined\n'
p3944
s.