(dp1
S'output'
p2
S"<type 'exceptions.SyntaxError'> invalid syntax (controllers/default.py, line 6)"
p3
sS'layer'
p4
S'C:\\Python27\\web2py\\applications\\Graficos\\controllers/default.py'
p5
sS'code'
p6
S'# -*- coding: utf-8 -*-\n\nfrom gluon.custom_import import track_changes\ntrack_changes(True)\n\nimport highcharts-thema\n\nfrom highcharts import clock\nfrom highcharts import chart\n\n\ndef index():\n    \n    #chart1 = grafico.chart(\'column\', \'container01\')\n\n    chart1 = clock(\'gauge\', \'container00\')\n    chart2 = chart(\'area\', \'container01\')\n\n    a = html(chart1, chart2)\n\n    return a\n\ndef html(strchart1, strchart2):\n\n    largura = 1440\n    altura = 860\n\n    nmlinhas = 1\n    nmcolunas = 2\n\n    largcel = largura / nmcolunas\n    altcel = altura / nmlinhas\n\n\n    strtd = criacolunas(largcel, altcel, 0, strchart1, strchart2, nmcolunas)    \n    \n    trlinha = (TR(strtd,_style=\': 1px; height:\' + str(altcel) + \'px; margin: 0 auto\'), )\n\n    for l in xrange(1,nmlinhas):\n        \n        strtd = criacolunas(largcel, altcel, l, strchart1, strchart2, nmcolunas)\n\n        trlinha = trlinha + (TR(strtd,_style=\': 1px; height:\' + str(altcel) + \'px; margin: 0 auto\'), )\n    \n    tabela = TABLE(trlinha, _border=\'0\')\n\n    html = HTML(\n            HEAD(\n                META(_charset=\'utf-8\'),\n                TITLE("graficos"),\n                META(_name=\'application-name\',_content=\'\'),\n                META(_name=\'google-site-verification\',_content=\'\'),\n                META(_name=\'viewport\',_content=\'width=device-width, initial-scale=1.0, user-scalable=yes\'),\n            SCRIPT(_src=\'/graficos/static/js/jquery.min.js\'),\n            tabela,\n    \n            SCRIPT(_language=\'javascript\', _type=\'text/javascript\')\n            ),\n            BODY(SCRIPT(_src=\'/graficos/static/js/highcharts.js\'), SCRIPT(_src=\'/graficos/static/js/highcharts-more.js\'),_bgcolor=\'FFFFFF\'),\n            #DIV(_id=\'container\', _style=\'width:2px; height: 1px; margin: 1 auto\'),\n             _class=\'no-js\')\n            \n    return html\n\n\n\n\ndef criacolunas(largcel, altcel, nmlinha, strchart1, strchart2, nmcolunas):\n\n    # primeira coluna da tabela\n    colunas = (TD(SCRIPT(XML(strchart1),_type=\'text/javascript\'),\n                _id=\'container\' + str(nmlinha) + \'0\',_style=\'width:\' + str(largcel) + \'px; height: \' + str(altcel) + \'px; margin: 0 auto\'), )\n\n    for c in xrange(1,nmcolunas):\n\n        # adiciona colunas a linha at\xc3\xa9 a quantidade selecionada\n\n        colunas =  colunas + (TD(SCRIPT(XML(strchart2),_type=\'text/javascript\'),\n                              _id=\'container\' + str(nmlinha) + str(c),_style=\'width:\' + str(largcel) + \'px; height: \' + str(altcel) + \'px; margin: 0 auto\'), )\n\n    return colunas\nresponse._vars=response._caller(index)\n'
p7
sS'snapshot'
p8
(dp9
S'exception'
p10
(dp11
S'__getslice__'
p12
S"<method-wrapper '__getslice__' of exceptions.SyntaxError object>"
p13
sS'text'
p14
S"'import highcharts-thema\\n'"
p15
sS'__str__'
p16
S"<method-wrapper '__str__' of exceptions.SyntaxError object>"
p17
sS'__reduce__'
p18
S'<built-in method __reduce__ of exceptions.SyntaxError object>'
p19
sS'__dict__'
p20
S'{}'
p21
sS'__sizeof__'
p22
S'<built-in method __sizeof__ of exceptions.SyntaxError object>'
p23
sS'__init__'
p24
S"<method-wrapper '__init__' of exceptions.SyntaxError object>"
p25
sS'__setattr__'
p26
S"<method-wrapper '__setattr__' of exceptions.SyntaxError object>"
p27
sS'__reduce_ex__'
p28
S'<built-in method __reduce_ex__ of exceptions.SyntaxError object>'
p29
sS'__new__'
p30
S'<built-in method __new__ of type object>'
p31
sS'__format__'
p32
S'<built-in method __format__ of exceptions.SyntaxError object>'
p33
sS'__class__'
p34
S"<type 'exceptions.SyntaxError'>"
p35
sS'filename'
p36
S"r'C:\\Python27\\web2py\\applications\\Graficos\\controllers/default.py'"
p37
sS'lineno'
p38
S'6'
sS'msg'
p39
S"'invalid syntax'"
p40
sS'__doc__'
p41
S"'Invalid syntax.'"
p42
sS'__getitem__'
p43
S"<method-wrapper '__getitem__' of exceptions.SyntaxError object>"
p44
sS'__setstate__'
p45
S'<built-in method __setstate__ of exceptions.SyntaxError object>'
p46
sS'__getattribute__'
p47
S"<method-wrapper '__getattribute__' of exceptions.SyntaxError object>"
p48
sS'print_file_and_line'
p49
S'None'
p50
sS'args'
p51
S"('invalid syntax', (r'C:\\Python27\\web2py\\applications\\Graficos\\controllers/default.py', 6, 18, 'import highcharts-thema\\n'))"
p52
sS'__subclasshook__'
p53
S'<built-in method __subclasshook__ of type object>'
p54
sS'offset'
p55
S'18'
p56
sS'__unicode__'
p57
S'<built-in method __unicode__ of exceptions.SyntaxError object>'
p58
sS'__delattr__'
p59
S"<method-wrapper '__delattr__' of exceptions.SyntaxError object>"
p60
sS'__repr__'
p61
S"<method-wrapper '__repr__' of exceptions.SyntaxError object>"
p62
sS'__hash__'
p63
S"<method-wrapper '__hash__' of exceptions.SyntaxError object>"
p64
ssS'evalue'
p65
S'invalid syntax (controllers/default.py, line 6)'
p66
sS'request'
p67
ccopy_reg
_reconstructor
p68
(cgluon.html
BEAUTIFY
p69
c__builtin__
object
p70
NtRp71
(dp72
S'attributes'
p73
(dp74
sS'components'
p75
(lp76
g68
(cgluon.html
TABLE
p77
g70
NtRp78
(dp79
g73
(dp80
S'level'
p81
I5
ssS'parent'
p82
Nsg75
(lp83
g68
(cgluon.html
TR
p84
g70
NtRp85
(dp86
g73
(dp87
sg82
g78
sg75
(lp88
g68
(cgluon.html
TD
p89
g70
NtRp90
(dp91
g73
(dp92
S'_style'
p93
S'font-weight:bold;vertical-align:top'
p94
ssg82
g85
sg75
(lp95
S'ajax'
p96
asbag68
(g89
g70
NtRp97
(dp98
g73
(dp99
S'_valign'
p100
S'top'
p101
ssg82
g85
sg75
(lp102
S':'
asbag68
(g89
g70
NtRp103
(dp104
g73
(dp105
sg82
g85
sg75
(lp106
g68
(g69
g70
NtRp107
(dp108
g73
(dp109
g81
I5
ssg82
g103
sg75
(lp110
S'False'
p111
asbasbasbag68
(g84
g70
NtRp112
(dp113
g73
(dp114
sg82
g78
sg75
(lp115
g68
(g89
g70
NtRp116
(dp117
g73
(dp118
g93
g94
ssg82
g112
sg75
(lp119
S'application'
p120
asbag68
(g89
g70
NtRp121
(dp122
g73
(dp123
g100
g101
ssg82
g112
sg75
(lp124
S':'
asbag68
(g89
g70
NtRp125
(dp126
g73
(dp127
sg82
g112
sg75
(lp128
g68
(g69
g70
NtRp129
(dp130
g73
(dp131
g81
I5
ssg82
g125
sg75
(lp132
S'Graficos'
p133
asbasbasbag68
(g84
g70
NtRp134
(dp135
g73
(dp136
sg82
g78
sg75
(lp137
g68
(g89
g70
NtRp138
(dp139
g73
(dp140
g93
g94
ssg82
g134
sg75
(lp141
g51
asbag68
(g89
g70
NtRp142
(dp143
g73
(dp144
g100
g101
ssg82
g134
sg75
(lp145
S':'
asbag68
(g89
g70
NtRp146
(dp147
g73
(dp148
sg82
g134
sg75
(lp149
g68
(g69
g70
NtRp150
(dp151
g73
(dp152
g81
I5
ssg82
g146
sg75
(lp153
g68
(g77
g70
NtRp154
(dp155
g73
(dp156
g81
I4
ssg82
Nsg75
(lp157
sbasbasbasbag68
(g84
g70
NtRp158
(dp159
g73
(dp160
sg82
g78
sg75
(lp161
g68
(g89
g70
NtRp162
(dp163
g73
(dp164
g93
g94
ssg82
g158
sg75
(lp165
S'body'
p166
asbag68
(g89
g70
NtRp167
(dp168
g73
(dp169
g100
g101
ssg82
g158
sg75
(lp170
S':'
asbag68
(g89
g70
NtRp171
(dp172
g73
(dp173
sg82
g158
sg75
(lp174
g68
(g69
g70
NtRp175
(dp176
g73
(dp177
g81
I5
ssg82
g171
sg75
(lp178
S'<cStringIO.StringO object at 0x0396B2A0>'
p179
asbasbasbag68
(g84
g70
NtRp180
(dp181
g73
(dp182
sg82
g78
sg75
(lp183
g68
(g89
g70
NtRp184
(dp185
g73
(dp186
g93
g94
ssg82
g180
sg75
(lp187
S'client'
p188
asbag68
(g89
g70
NtRp189
(dp190
g73
(dp191
g100
g101
ssg82
g180
sg75
(lp192
S':'
asbag68
(g89
g70
NtRp193
(dp194
g73
(dp195
sg82
g180
sg75
(lp196
g68
(g69
g70
NtRp197
(dp198
g73
(dp199
g81
I5
ssg82
g193
sg75
(lp200
S'127.0.0.1'
p201
asbasbasbag68
(g84
g70
NtRp202
(dp203
g73
(dp204
sg82
g78
sg75
(lp205
g68
(g89
g70
NtRp206
(dp207
g73
(dp208
g93
g94
ssg82
g202
sg75
(lp209
S'controller'
p210
asbag68
(g89
g70
NtRp211
(dp212
g73
(dp213
g100
g101
ssg82
g202
sg75
(lp214
S':'
asbag68
(g89
g70
NtRp215
(dp216
g73
(dp217
sg82
g202
sg75
(lp218
g68
(g69
g70
NtRp219
(dp220
g73
(dp221
g81
I5
ssg82
g215
sg75
(lp222
S'default'
p223
asbasbasbag68
(g84
g70
NtRp224
(dp225
g73
(dp226
sg82
g78
sg75
(lp227
g68
(g89
g70
NtRp228
(dp229
g73
(dp230
g93
g94
ssg82
g224
sg75
(lp231
S'cookies'
p232
asbag68
(g89
g70
NtRp233
(dp234
g73
(dp235
g100
g101
ssg82
g224
sg75
(lp236
S':'
asbag68
(g89
g70
NtRp237
(dp238
g73
(dp239
sg82
g224
sg75
(lp240
g68
(g69
g70
NtRp241
(dp242
g73
(dp243
g81
I5
ssg82
g237
sg75
(lp244
g68
(g77
g70
NtRp245
(dp246
g73
(dp247
g81
I4
ssg82
Nsg75
(lp248
g68
(g84
g70
NtRp249
(dp250
g73
(dp251
sg82
g245
sg75
(lp252
g68
(g89
g70
NtRp253
(dp254
g73
(dp255
g93
g94
ssg82
g249
sg75
(lp256
S'session_id_graficos'
p257
asbag68
(g89
g70
NtRp258
(dp259
g73
(dp260
g100
g101
ssg82
g249
sg75
(lp261
S':'
asbag68
(g89
g70
NtRp262
(dp263
g73
(dp264
sg82
g249
sg75
(lp265
g68
(g69
g70
NtRp266
(dp267
g73
(dp268
g81
I4
ssg82
g262
sg75
(lp269
g68
(g77
g70
NtRp270
(dp271
g73
(dp272
g81
I3
ssg82
Nsg75
(lp273
g68
(g84
g70
NtRp274
(dp275
g73
(dp276
sg82
g270
sg75
(lp277
g68
(g89
g70
NtRp278
(dp279
g73
(dp280
g93
g94
ssg82
g274
sg75
(lp281
S'comment'
p282
asbag68
(g89
g70
NtRp283
(dp284
g73
(dp285
g100
g101
ssg82
g274
sg75
(lp286
S':'
asbag68
(g89
g70
NtRp287
(dp288
g73
(dp289
sg82
g274
sg75
(lp290
g68
(g69
g70
NtRp291
(dp292
g73
(dp293
g81
I3
ssg82
g287
sg75
(lp294
S''
asbasbasbag68
(g84
g70
NtRp295
(dp296
g73
(dp297
sg82
g270
sg75
(lp298
g68
(g89
g70
NtRp299
(dp300
g73
(dp301
g93
g94
ssg82
g295
sg75
(lp302
S'domain'
p303
asbag68
(g89
g70
NtRp304
(dp305
g73
(dp306
g100
g101
ssg82
g295
sg75
(lp307
S':'
asbag68
(g89
g70
NtRp308
(dp309
g73
(dp310
sg82
g295
sg75
(lp311
g68
(g69
g70
NtRp312
(dp313
g73
(dp314
g81
I3
ssg82
g308
sg75
(lp315
S''
asbasbasbag68
(g84
g70
NtRp316
(dp317
g73
(dp318
sg82
g270
sg75
(lp319
g68
(g89
g70
NtRp320
(dp321
g73
(dp322
g93
g94
ssg82
g316
sg75
(lp323
S'expires'
p324
asbag68
(g89
g70
NtRp325
(dp326
g73
(dp327
g100
g101
ssg82
g316
sg75
(lp328
S':'
asbag68
(g89
g70
NtRp329
(dp330
g73
(dp331
sg82
g316
sg75
(lp332
g68
(g69
g70
NtRp333
(dp334
g73
(dp335
g81
I3
ssg82
g329
sg75
(lp336
S''
asbasbasbag68
(g84
g70
NtRp337
(dp338
g73
(dp339
sg82
g270
sg75
(lp340
g68
(g89
g70
NtRp341
(dp342
g73
(dp343
g93
g94
ssg82
g337
sg75
(lp344
S'httponly'
p345
asbag68
(g89
g70
NtRp346
(dp347
g73
(dp348
g100
g101
ssg82
g337
sg75
(lp349
S':'
asbag68
(g89
g70
NtRp350
(dp351
g73
(dp352
sg82
g337
sg75
(lp353
g68
(g69
g70
NtRp354
(dp355
g73
(dp356
g81
I3
ssg82
g350
sg75
(lp357
S''
asbasbasbag68
(g84
g70
NtRp358
(dp359
g73
(dp360
sg82
g270
sg75
(lp361
g68
(g89
g70
NtRp362
(dp363
g73
(dp364
g93
g94
ssg82
g358
sg75
(lp365
S'max-age'
p366
asbag68
(g89
g70
NtRp367
(dp368
g73
(dp369
g100
g101
ssg82
g358
sg75
(lp370
S':'
asbag68
(g89
g70
NtRp371
(dp372
g73
(dp373
sg82
g358
sg75
(lp374
g68
(g69
g70
NtRp375
(dp376
g73
(dp377
g81
I3
ssg82
g371
sg75
(lp378
S''
asbasbasbag68
(g84
g70
NtRp379
(dp380
g73
(dp381
sg82
g270
sg75
(lp382
g68
(g89
g70
NtRp383
(dp384
g73
(dp385
g93
g94
ssg82
g379
sg75
(lp386
S'path'
p387
asbag68
(g89
g70
NtRp388
(dp389
g73
(dp390
g100
g101
ssg82
g379
sg75
(lp391
S':'
asbag68
(g89
g70
NtRp392
(dp393
g73
(dp394
sg82
g379
sg75
(lp395
g68
(g69
g70
NtRp396
(dp397
g73
(dp398
g81
I3
ssg82
g392
sg75
(lp399
S''
asbasbasbag68
(g84
g70
NtRp400
(dp401
g73
(dp402
sg82
g270
sg75
(lp403
g68
(g89
g70
NtRp404
(dp405
g73
(dp406
g93
g94
ssg82
g400
sg75
(lp407
S'secure'
p408
asbag68
(g89
g70
NtRp409
(dp410
g73
(dp411
g100
g101
ssg82
g400
sg75
(lp412
S':'
asbag68
(g89
g70
NtRp413
(dp414
g73
(dp415
sg82
g400
sg75
(lp416
g68
(g69
g70
NtRp417
(dp418
g73
(dp419
g81
I3
ssg82
g413
sg75
(lp420
S''
asbasbasbag68
(g84
g70
NtRp421
(dp422
g73
(dp423
sg82
g270
sg75
(lp424
g68
(g89
g70
NtRp425
(dp426
g73
(dp427
g93
g94
ssg82
g421
sg75
(lp428
S'version'
p429
asbag68
(g89
g70
NtRp430
(dp431
g73
(dp432
g100
g101
ssg82
g421
sg75
(lp433
S':'
asbag68
(g89
g70
NtRp434
(dp435
g73
(dp436
sg82
g421
sg75
(lp437
g68
(g69
g70
NtRp438
(dp439
g73
(dp440
g81
I3
ssg82
g434
sg75
(lp441
S''
asbasbasbasbasbasbasbasbasbasbasbag68
(g84
g70
NtRp442
(dp443
g73
(dp444
sg82
g78
sg75
(lp445
g68
(g89
g70
NtRp446
(dp447
g73
(dp448
g93
g94
ssg82
g442
sg75
(lp449
S'env'
p450
asbag68
(g89
g70
NtRp451
(dp452
g73
(dp453
g100
g101
ssg82
g442
sg75
(lp454
S':'
asbag68
(g89
g70
NtRp455
(dp456
g73
(dp457
sg82
g442
sg75
(lp458
g68
(g69
g70
NtRp459
(dp460
g73
(dp461
g81
I5
ssg82
g455
sg75
(lp462
g68
(g77
g70
NtRp463
(dp464
g73
(dp465
g81
I4
ssg82
Nsg75
(lp466
g68
(g84
g70
NtRp467
(dp468
g73
(dp469
sg82
g463
sg75
(lp470
g68
(g89
g70
NtRp471
(dp472
g73
(dp473
g93
g94
ssg82
g467
sg75
(lp474
S'app_folders'
p475
asbag68
(g89
g70
NtRp476
(dp477
g73
(dp478
g100
g101
ssg82
g467
sg75
(lp479
S':'
asbag68
(g89
g70
NtRp480
(dp481
g73
(dp482
sg82
g467
sg75
(lp483
g68
(g69
g70
NtRp484
(dp485
g73
(dp486
g81
I4
ssg82
g480
sg75
(lp487
S"set(['C:\\\\Python27\\\\web2py\\\\applications\\\\Graficos\\\\'])"
p488
asbasbasbag68
(g84
g70
NtRp489
(dp490
g73
(dp491
sg82
g463
sg75
(lp492
g68
(g89
g70
NtRp493
(dp494
g73
(dp495
g93
g94
ssg82
g489
sg75
(lp496
S'applications_parent'
p497
asbag68
(g89
g70
NtRp498
(dp499
g73
(dp500
g100
g101
ssg82
g489
sg75
(lp501
S':'
asbag68
(g89
g70
NtRp502
(dp503
g73
(dp504
sg82
g489
sg75
(lp505
g68
(g69
g70
NtRp506
(dp507
g73
(dp508
g81
I4
ssg82
g502
sg75
(lp509
S'C:\\Python27\\web2py'
p510
asbasbasbag68
(g84
g70
NtRp511
(dp512
g73
(dp513
sg82
g463
sg75
(lp514
g68
(g89
g70
NtRp515
(dp516
g73
(dp517
g93
g94
ssg82
g511
sg75
(lp518
S'cmd_args'
p519
asbag68
(g89
g70
NtRp520
(dp521
g73
(dp522
g100
g101
ssg82
g511
sg75
(lp523
S':'
asbag68
(g89
g70
NtRp524
(dp525
g73
(dp526
sg82
g511
sg75
(lp527
g68
(g69
g70
NtRp528
(dp529
g73
(dp530
g81
I4
ssg82
g524
sg75
(lp531
g68
(g77
g70
NtRp532
(dp533
g73
(dp534
g81
I3
ssg82
Nsg75
(lp535
sbasbasbasbag68
(g84
g70
NtRp536
(dp537
g73
(dp538
sg82
g463
sg75
(lp539
g68
(g89
g70
NtRp540
(dp541
g73
(dp542
g93
g94
ssg82
g536
sg75
(lp543
S'cmd_options'
p544
asbag68
(g89
g70
NtRp545
(dp546
g73
(dp547
g100
g101
ssg82
g536
sg75
(lp548
S':'
asbag68
(g89
g70
NtRp549
(dp550
g73
(dp551
sg82
g536
sg75
(lp552
g68
(g69
g70
NtRp553
(dp554
g73
(dp555
g81
I4
ssg82
g549
sg75
(lp556
S"<Values at 0x391da30: {'verbose': False, 'ip': '127.0.0.1', 'shutdown_timeout': 5, 'taskbar': False, 'nocron': False, 'pid_filename': 'httpserver.pid', 'maxthreads': None, 'softcron': False, 'server_name': 'VSWKS071', 'bpython': False, 'nogui': False, 'port': 8000, 'extcron': False, 'debuglevel': 30, 'test': None, 'folder': 'C:\\\\Python27\\\\web2py', 'config': '', 'import_models': False, 'winservice': '', 'shell': None, 'run': '', 'log_filename': 'httpserver.log', 'args': [''], 'socket_timeout': 5, 'ssl_ca_certificate': None, 'scheduler': None, 'profiler_filename': None, 'ssl_private_key': '', 'password': '123', 'request_queue_size': 5, 'ssl_certificate': '', 'cronjob': False, 'numthreads': None, 'quiet': False, 'interfaces': None, 'minthreads': None, 'timeout': 10, 'plain': False, 'nobanner': False}>"
p557
asbasbasbag68
(g84
g70
NtRp558
(dp559
g73
(dp560
sg82
g463
sg75
(lp561
g68
(g89
g70
NtRp562
(dp563
g73
(dp564
g93
g94
ssg82
g558
sg75
(lp565
S'db_sessions'
p566
asbag68
(g89
g70
NtRp567
(dp568
g73
(dp569
g100
g101
ssg82
g558
sg75
(lp570
S':'
asbag68
(g89
g70
NtRp571
(dp572
g73
(dp573
sg82
g558
sg75
(lp574
g68
(g69
g70
NtRp575
(dp576
g73
(dp577
g81
I4
ssg82
g571
sg75
(lp578
S'set([])'
p579
asbasbasbag68
(g84
g70
NtRp580
(dp581
g73
(dp582
sg82
g463
sg75
(lp583
g68
(g89
g70
NtRp584
(dp585
g73
(dp586
g93
g94
ssg82
g580
sg75
(lp587
S'debugging'
p588
asbag68
(g89
g70
NtRp589
(dp590
g73
(dp591
g100
g101
ssg82
g580
sg75
(lp592
S':'
asbag68
(g89
g70
NtRp593
(dp594
g73
(dp595
sg82
g580
sg75
(lp596
g68
(g69
g70
NtRp597
(dp598
g73
(dp599
g81
I4
ssg82
g593
sg75
(lp600
g111
asbasbasbag68
(g84
g70
NtRp601
(dp602
g73
(dp603
sg82
g463
sg75
(lp604
g68
(g89
g70
NtRp605
(dp606
g73
(dp607
g93
g94
ssg82
g601
sg75
(lp608
S'gluon_parent'
p609
asbag68
(g89
g70
NtRp610
(dp611
g73
(dp612
g100
g101
ssg82
g601
sg75
(lp613
S':'
asbag68
(g89
g70
NtRp614
(dp615
g73
(dp616
sg82
g601
sg75
(lp617
g68
(g69
g70
NtRp618
(dp619
g73
(dp620
g81
I4
ssg82
g614
sg75
(lp621
S'C:\\Python27\\web2py'
p622
asbasbasbag68
(g84
g70
NtRp623
(dp624
g73
(dp625
sg82
g463
sg75
(lp626
g68
(g89
g70
NtRp627
(dp628
g73
(dp629
g93
g94
ssg82
g623
sg75
(lp630
S'http_accept'
p631
asbag68
(g89
g70
NtRp632
(dp633
g73
(dp634
g100
g101
ssg82
g623
sg75
(lp635
S':'
asbag68
(g89
g70
NtRp636
(dp637
g73
(dp638
sg82
g623
sg75
(lp639
g68
(g69
g70
NtRp640
(dp641
g73
(dp642
g81
I4
ssg82
g636
sg75
(lp643
S'text/html,application/xhtml+xml,application/xml;q=0.9,*/*;q=0.8'
p644
asbasbasbag68
(g84
g70
NtRp645
(dp646
g73
(dp647
sg82
g463
sg75
(lp648
g68
(g89
g70
NtRp649
(dp650
g73
(dp651
g93
g94
ssg82
g645
sg75
(lp652
S'http_accept_encoding'
p653
asbag68
(g89
g70
NtRp654
(dp655
g73
(dp656
g100
g101
ssg82
g645
sg75
(lp657
S':'
asbag68
(g89
g70
NtRp658
(dp659
g73
(dp660
sg82
g645
sg75
(lp661
g68
(g69
g70
NtRp662
(dp663
g73
(dp664
g81
I4
ssg82
g658
sg75
(lp665
S'gzip, deflate'
p666
asbasbasbag68
(g84
g70
NtRp667
(dp668
g73
(dp669
sg82
g463
sg75
(lp670
g68
(g89
g70
NtRp671
(dp672
g73
(dp673
g93
g94
ssg82
g667
sg75
(lp674
S'http_accept_language'
p675
asbag68
(g89
g70
NtRp676
(dp677
g73
(dp678
g100
g101
ssg82
g667
sg75
(lp679
S':'
asbag68
(g89
g70
NtRp680
(dp681
g73
(dp682
sg82
g667
sg75
(lp683
g68
(g69
g70
NtRp684
(dp685
g73
(dp686
g81
I4
ssg82
g680
sg75
(lp687
S'pt-BR,pt;q=0.8,en-US;q=0.5,en;q=0.3'
p688
asbasbasbag68
(g84
g70
NtRp689
(dp690
g73
(dp691
sg82
g463
sg75
(lp692
g68
(g89
g70
NtRp693
(dp694
g73
(dp695
g93
g94
ssg82
g689
sg75
(lp696
S'http_connection'
p697
asbag68
(g89
g70
NtRp698
(dp699
g73
(dp700
g100
g101
ssg82
g689
sg75
(lp701
S':'
asbag68
(g89
g70
NtRp702
(dp703
g73
(dp704
sg82
g689
sg75
(lp705
g68
(g69
g70
NtRp706
(dp707
g73
(dp708
g81
I4
ssg82
g702
sg75
(lp709
S'keep-alive'
p710
asbasbasbag68
(g84
g70
NtRp711
(dp712
g73
(dp713
sg82
g463
sg75
(lp714
g68
(g89
g70
NtRp715
(dp716
g73
(dp717
g93
g94
ssg82
g711
sg75
(lp718
S'http_cookie'
p719
asbag68
(g89
g70
NtRp720
(dp721
g73
(dp722
g100
g101
ssg82
g711
sg75
(lp723
S':'
asbag68
(g89
g70
NtRp724
(dp725
g73
(dp726
sg82
g711
sg75
(lp727
g68
(g69
g70
NtRp728
(dp729
g73
(dp730
g81
I4
ssg82
g724
sg75
(lp731
S'session_id_graficos=127.0.0.1-e347d2a6-c495-47da-81eb-ac35b22b3e1a'
p732
asbasbasbag68
(g84
g70
NtRp733
(dp734
g73
(dp735
sg82
g463
sg75
(lp736
g68
(g89
g70
NtRp737
(dp738
g73
(dp739
g93
g94
ssg82
g733
sg75
(lp740
S'http_host'
p741
asbag68
(g89
g70
NtRp742
(dp743
g73
(dp744
g100
g101
ssg82
g733
sg75
(lp745
S':'
asbag68
(g89
g70
NtRp746
(dp747
g73
(dp748
sg82
g733
sg75
(lp749
g68
(g69
g70
NtRp750
(dp751
g73
(dp752
g81
I4
ssg82
g746
sg75
(lp753
S'127.0.0.1:8000'
p754
asbasbasbag68
(g84
g70
NtRp755
(dp756
g73
(dp757
sg82
g463
sg75
(lp758
g68
(g89
g70
NtRp759
(dp760
g73
(dp761
g93
g94
ssg82
g755
sg75
(lp762
S'http_user_agent'
p763
asbag68
(g89
g70
NtRp764
(dp765
g73
(dp766
g100
g101
ssg82
g755
sg75
(lp767
S':'
asbag68
(g89
g70
NtRp768
(dp769
g73
(dp770
sg82
g755
sg75
(lp771
g68
(g69
g70
NtRp772
(dp773
g73
(dp774
g81
I4
ssg82
g768
sg75
(lp775
S'Mozilla/5.0 (Windows NT 6.1; WOW64; rv:17.0) Gecko/20100101 Firefox/17.0'
p776
asbasbasbag68
(g84
g70
NtRp777
(dp778
g73
(dp779
sg82
g463
sg75
(lp780
g68
(g89
g70
NtRp781
(dp782
g73
(dp783
g93
g94
ssg82
g777
sg75
(lp784
S'is_jython'
p785
asbag68
(g89
g70
NtRp786
(dp787
g73
(dp788
g100
g101
ssg82
g777
sg75
(lp789
S':'
asbag68
(g89
g70
NtRp790
(dp791
g73
(dp792
sg82
g777
sg75
(lp793
g68
(g69
g70
NtRp794
(dp795
g73
(dp796
g81
I4
ssg82
g790
sg75
(lp797
g111
asbasbasbag68
(g84
g70
NtRp798
(dp799
g73
(dp800
sg82
g463
sg75
(lp801
g68
(g89
g70
NtRp802
(dp803
g73
(dp804
g93
g94
ssg82
g798
sg75
(lp805
S'is_pypy'
p806
asbag68
(g89
g70
NtRp807
(dp808
g73
(dp809
g100
g101
ssg82
g798
sg75
(lp810
S':'
asbag68
(g89
g70
NtRp811
(dp812
g73
(dp813
sg82
g798
sg75
(lp814
g68
(g69
g70
NtRp815
(dp816
g73
(dp817
g81
I4
ssg82
g811
sg75
(lp818
g111
asbasbasbag68
(g84
g70
NtRp819
(dp820
g73
(dp821
sg82
g463
sg75
(lp822
g68
(g89
g70
NtRp823
(dp824
g73
(dp825
g93
g94
ssg82
g819
sg75
(lp826
S'path_info'
p827
asbag68
(g89
g70
NtRp828
(dp829
g73
(dp830
g100
g101
ssg82
g819
sg75
(lp831
S':'
asbag68
(g89
g70
NtRp832
(dp833
g73
(dp834
sg82
g819
sg75
(lp835
g68
(g69
g70
NtRp836
(dp837
g73
(dp838
g81
I4
ssg82
g832
sg75
(lp839
S'/Graficos/'
p840
asbasbasbag68
(g84
g70
NtRp841
(dp842
g73
(dp843
sg82
g463
sg75
(lp844
g68
(g89
g70
NtRp845
(dp846
g73
(dp847
g93
g94
ssg82
g841
sg75
(lp848
S'query_string'
p849
asbag68
(g89
g70
NtRp850
(dp851
g73
(dp852
g100
g101
ssg82
g841
sg75
(lp853
S':'
asbag68
(g89
g70
NtRp854
(dp855
g73
(dp856
sg82
g841
sg75
(lp857
g68
(g69
g70
NtRp858
(dp859
g73
(dp860
g81
I4
ssg82
g854
sg75
(lp861
S''
asbasbasbag68
(g84
g70
NtRp862
(dp863
g73
(dp864
sg82
g463
sg75
(lp865
g68
(g89
g70
NtRp866
(dp867
g73
(dp868
g93
g94
ssg82
g862
sg75
(lp869
S'remote_addr'
p870
asbag68
(g89
g70
NtRp871
(dp872
g73
(dp873
g100
g101
ssg82
g862
sg75
(lp874
S':'
asbag68
(g89
g70
NtRp875
(dp876
g73
(dp877
sg82
g862
sg75
(lp878
g68
(g69
g70
NtRp879
(dp880
g73
(dp881
g81
I4
ssg82
g875
sg75
(lp882
g201
asbasbasbag68
(g84
g70
NtRp883
(dp884
g73
(dp885
sg82
g463
sg75
(lp886
g68
(g89
g70
NtRp887
(dp888
g73
(dp889
g93
g94
ssg82
g883
sg75
(lp890
S'remote_port'
p891
asbag68
(g89
g70
NtRp892
(dp893
g73
(dp894
g100
g101
ssg82
g883
sg75
(lp895
S':'
asbag68
(g89
g70
NtRp896
(dp897
g73
(dp898
sg82
g883
sg75
(lp899
g68
(g69
g70
NtRp900
(dp901
g73
(dp902
g81
I4
ssg82
g896
sg75
(lp903
S'56462'
p904
asbasbasbag68
(g84
g70
NtRp905
(dp906
g73
(dp907
sg82
g463
sg75
(lp908
g68
(g89
g70
NtRp909
(dp910
g73
(dp911
g93
g94
ssg82
g905
sg75
(lp912
S'request_method'
p913
asbag68
(g89
g70
NtRp914
(dp915
g73
(dp916
g100
g101
ssg82
g905
sg75
(lp917
S':'
asbag68
(g89
g70
NtRp918
(dp919
g73
(dp920
sg82
g905
sg75
(lp921
g68
(g69
g70
NtRp922
(dp923
g73
(dp924
g81
I4
ssg82
g918
sg75
(lp925
S'GET'
p926
asbasbasbag68
(g84
g70
NtRp927
(dp928
g73
(dp929
sg82
g463
sg75
(lp930
g68
(g89
g70
NtRp931
(dp932
g73
(dp933
g93
g94
ssg82
g927
sg75
(lp934
S'script_name'
p935
asbag68
(g89
g70
NtRp936
(dp937
g73
(dp938
g100
g101
ssg82
g927
sg75
(lp939
S':'
asbag68
(g89
g70
NtRp940
(dp941
g73
(dp942
sg82
g927
sg75
(lp943
g68
(g69
g70
NtRp944
(dp945
g73
(dp946
g81
I4
ssg82
g940
sg75
(lp947
S''
asbasbasbag68
(g84
g70
NtRp948
(dp949
g73
(dp950
sg82
g463
sg75
(lp951
g68
(g89
g70
NtRp952
(dp953
g73
(dp954
g93
g94
ssg82
g948
sg75
(lp955
S'server_name'
p956
asbag68
(g89
g70
NtRp957
(dp958
g73
(dp959
g100
g101
ssg82
g948
sg75
(lp960
S':'
asbag68
(g89
g70
NtRp961
(dp962
g73
(dp963
sg82
g948
sg75
(lp964
g68
(g69
g70
NtRp965
(dp966
g73
(dp967
g81
I4
ssg82
g961
sg75
(lp968
S'VSWKS071'
p969
asbasbasbag68
(g84
g70
NtRp970
(dp971
g73
(dp972
sg82
g463
sg75
(lp973
g68
(g89
g70
NtRp974
(dp975
g73
(dp976
g93
g94
ssg82
g970
sg75
(lp977
S'server_port'
p978
asbag68
(g89
g70
NtRp979
(dp980
g73
(dp981
g100
g101
ssg82
g970
sg75
(lp982
S':'
asbag68
(g89
g70
NtRp983
(dp984
g73
(dp985
sg82
g970
sg75
(lp986
g68
(g69
g70
NtRp987
(dp988
g73
(dp989
g81
I4
ssg82
g983
sg75
(lp990
S'8000'
p991
asbasbasbag68
(g84
g70
NtRp992
(dp993
g73
(dp994
sg82
g463
sg75
(lp995
g68
(g89
g70
NtRp996
(dp997
g73
(dp998
g93
g94
ssg82
g992
sg75
(lp999
S'server_protocol'
p1000
asbag68
(g89
g70
NtRp1001
(dp1002
g73
(dp1003
g100
g101
ssg82
g992
sg75
(lp1004
S':'
asbag68
(g89
g70
NtRp1005
(dp1006
g73
(dp1007
sg82
g992
sg75
(lp1008
g68
(g69
g70
NtRp1009
(dp1010
g73
(dp1011
g81
I4
ssg82
g1005
sg75
(lp1012
S'HTTP/1.1'
p1013
asbasbasbag68
(g84
g70
NtRp1014
(dp1015
g73
(dp1016
sg82
g463
sg75
(lp1017
g68
(g89
g70
NtRp1018
(dp1019
g73
(dp1020
g93
g94
ssg82
g1014
sg75
(lp1021
S'server_software'
p1022
asbag68
(g89
g70
NtRp1023
(dp1024
g73
(dp1025
g100
g101
ssg82
g1014
sg75
(lp1026
S':'
asbag68
(g89
g70
NtRp1027
(dp1028
g73
(dp1029
sg82
g1014
sg75
(lp1030
g68
(g69
g70
NtRp1031
(dp1032
g73
(dp1033
g81
I4
ssg82
g1027
sg75
(lp1034
S'Rocket 1.2.4'
p1035
asbasbasbag68
(g84
g70
NtRp1036
(dp1037
g73
(dp1038
sg82
g463
sg75
(lp1039
g68
(g89
g70
NtRp1040
(dp1041
g73
(dp1042
g93
g94
ssg82
g1036
sg75
(lp1043
S'web2py_crontype'
p1044
asbag68
(g89
g70
NtRp1045
(dp1046
g73
(dp1047
g100
g101
ssg82
g1036
sg75
(lp1048
S':'
asbag68
(g89
g70
NtRp1049
(dp1050
g73
(dp1051
sg82
g1036
sg75
(lp1052
g68
(g69
g70
NtRp1053
(dp1054
g73
(dp1055
g81
I4
ssg82
g1049
sg75
(lp1056
S'hard'
p1057
asbasbasbag68
(g84
g70
NtRp1058
(dp1059
g73
(dp1060
sg82
g463
sg75
(lp1061
g68
(g89
g70
NtRp1062
(dp1063
g73
(dp1064
g93
g94
ssg82
g1058
sg75
(lp1065
S'web2py_path'
p1066
asbag68
(g89
g70
NtRp1067
(dp1068
g73
(dp1069
g100
g101
ssg82
g1058
sg75
(lp1070
S':'
asbag68
(g89
g70
NtRp1071
(dp1072
g73
(dp1073
sg82
g1058
sg75
(lp1074
g68
(g69
g70
NtRp1075
(dp1076
g73
(dp1077
g81
I4
ssg82
g1071
sg75
(lp1078
g510
asbasbasbag68
(g84
g70
NtRp1079
(dp1080
g73
(dp1081
sg82
g463
sg75
(lp1082
g68
(g89
g70
NtRp1083
(dp1084
g73
(dp1085
g93
g94
ssg82
g1079
sg75
(lp1086
S'web2py_version'
p1087
asbag68
(g89
g70
NtRp1088
(dp1089
g73
(dp1090
g100
g101
ssg82
g1079
sg75
(lp1091
S':'
asbag68
(g89
g70
NtRp1092
(dp1093
g73
(dp1094
sg82
g1079
sg75
(lp1095
g68
(g69
g70
NtRp1096
(dp1097
g73
(dp1098
g81
I4
ssg82
g1092
sg75
(lp1099
g68
(g77
g70
NtRp1100
(dp1101
g73
(dp1102
g81
I3
ssg82
Nsg75
(lp1103
g68
(g84
g70
NtRp1104
(dp1105
g73
(dp1106
sg82
g1100
sg75
(lp1107
g68
(g89
g70
NtRp1108
(dp1109
g73
(dp1110
sg82
g1104
sg75
(lp1111
g68
(g69
g70
NtRp1112
(dp1113
g73
(dp1114
g81
I3
ssg82
g1108
sg75
(lp1115
S'1'
asbasbasbag68
(g84
g70
NtRp1116
(dp1117
g73
(dp1118
sg82
g1100
sg75
(lp1119
g68
(g89
g70
NtRp1120
(dp1121
g73
(dp1122
sg82
g1116
sg75
(lp1123
g68
(g69
g70
NtRp1124
(dp1125
g73
(dp1126
g81
I3
ssg82
g1120
sg75
(lp1127
S'99'
p1128
asbasbasbag68
(g84
g70
NtRp1129
(dp1130
g73
(dp1131
sg82
g1100
sg75
(lp1132
g68
(g89
g70
NtRp1133
(dp1134
g73
(dp1135
sg82
g1129
sg75
(lp1136
g68
(g69
g70
NtRp1137
(dp1138
g73
(dp1139
g81
I3
ssg82
g1133
sg75
(lp1140
S'7'
asbasbasbag68
(g84
g70
NtRp1141
(dp1142
g73
(dp1143
sg82
g1100
sg75
(lp1144
g68
(g89
g70
NtRp1145
(dp1146
g73
(dp1147
sg82
g1141
sg75
(lp1148
g68
(g69
g70
NtRp1149
(dp1150
g73
(dp1151
g81
I3
ssg82
g1145
sg75
(lp1152
S'datetime.datetime(2012, 3, 4, 22, 12, 8)'
p1153
asbasbasbag68
(g84
g70
NtRp1154
(dp1155
g73
(dp1156
sg82
g1100
sg75
(lp1157
g68
(g89
g70
NtRp1158
(dp1159
g73
(dp1160
sg82
g1154
sg75
(lp1161
g68
(g69
g70
NtRp1162
(dp1163
g73
(dp1164
g81
I3
ssg82
g1158
sg75
(lp1165
S'stable'
p1166
asbasbasbasbasbasbasbag68
(g84
g70
NtRp1167
(dp1168
g73
(dp1169
sg82
g463
sg75
(lp1170
g68
(g89
g70
NtRp1171
(dp1172
g73
(dp1173
g93
g94
ssg82
g1167
sg75
(lp1174
S'wsgi_errors'
p1175
asbag68
(g89
g70
NtRp1176
(dp1177
g73
(dp1178
g100
g101
ssg82
g1167
sg75
(lp1179
S':'
asbag68
(g89
g70
NtRp1180
(dp1181
g73
(dp1182
sg82
g1167
sg75
(lp1183
g68
(g69
g70
NtRp1184
(dp1185
g73
(dp1186
g81
I4
ssg82
g1180
sg75
(lp1187
S"<open file '<stderr>', mode 'w' at 0x01E150D0>"
p1188
asbasbasbag68
(g84
g70
NtRp1189
(dp1190
g73
(dp1191
sg82
g463
sg75
(lp1192
g68
(g89
g70
NtRp1193
(dp1194
g73
(dp1195
g93
g94
ssg82
g1189
sg75
(lp1196
S'wsgi_file_wrapper'
p1197
asbag68
(g89
g70
NtRp1198
(dp1199
g73
(dp1200
g100
g101
ssg82
g1189
sg75
(lp1201
S':'
asbag68
(g89
g70
NtRp1202
(dp1203
g73
(dp1204
sg82
g1189
sg75
(lp1205
g68
(g69
g70
NtRp1206
(dp1207
g73
(dp1208
g81
I4
ssg82
g1202
sg75
(lp1209
S'<class wsgiref.util.FileWrapper at 0x03832768>'
p1210
asbasbasbag68
(g84
g70
NtRp1211
(dp1212
g73
(dp1213
sg82
g463
sg75
(lp1214
g68
(g89
g70
NtRp1215
(dp1216
g73
(dp1217
g93
g94
ssg82
g1211
sg75
(lp1218
S'wsgi_input'
p1219
asbag68
(g89
g70
NtRp1220
(dp1221
g73
(dp1222
g100
g101
ssg82
g1211
sg75
(lp1223
S':'
asbag68
(g89
g70
NtRp1224
(dp1225
g73
(dp1226
sg82
g1211
sg75
(lp1227
g68
(g69
g70
NtRp1228
(dp1229
g73
(dp1230
g81
I4
ssg82
g1224
sg75
(lp1231
S'<socket._fileobject object at 0x039536F0>'
p1232
asbasbasbag68
(g84
g70
NtRp1233
(dp1234
g73
(dp1235
sg82
g463
sg75
(lp1236
g68
(g89
g70
NtRp1237
(dp1238
g73
(dp1239
g93
g94
ssg82
g1233
sg75
(lp1240
S'wsgi_multiprocess'
p1241
asbag68
(g89
g70
NtRp1242
(dp1243
g73
(dp1244
g100
g101
ssg82
g1233
sg75
(lp1245
S':'
asbag68
(g89
g70
NtRp1246
(dp1247
g73
(dp1248
sg82
g1233
sg75
(lp1249
g68
(g69
g70
NtRp1250
(dp1251
g73
(dp1252
g81
I4
ssg82
g1246
sg75
(lp1253
g111
asbasbasbag68
(g84
g70
NtRp1254
(dp1255
g73
(dp1256
sg82
g463
sg75
(lp1257
g68
(g89
g70
NtRp1258
(dp1259
g73
(dp1260
g93
g94
ssg82
g1254
sg75
(lp1261
S'wsgi_multithread'
p1262
asbag68
(g89
g70
NtRp1263
(dp1264
g73
(dp1265
g100
g101
ssg82
g1254
sg75
(lp1266
S':'
asbag68
(g89
g70
NtRp1267
(dp1268
g73
(dp1269
sg82
g1254
sg75
(lp1270
g68
(g69
g70
NtRp1271
(dp1272
g73
(dp1273
g81
I4
ssg82
g1267
sg75
(lp1274
S'True'
p1275
asbasbasbag68
(g84
g70
NtRp1276
(dp1277
g73
(dp1278
sg82
g463
sg75
(lp1279
g68
(g89
g70
NtRp1280
(dp1281
g73
(dp1282
g93
g94
ssg82
g1276
sg75
(lp1283
S'wsgi_run_once'
p1284
asbag68
(g89
g70
NtRp1285
(dp1286
g73
(dp1287
g100
g101
ssg82
g1276
sg75
(lp1288
S':'
asbag68
(g89
g70
NtRp1289
(dp1290
g73
(dp1291
sg82
g1276
sg75
(lp1292
g68
(g69
g70
NtRp1293
(dp1294
g73
(dp1295
g81
I4
ssg82
g1289
sg75
(lp1296
g111
asbasbasbag68
(g84
g70
NtRp1297
(dp1298
g73
(dp1299
sg82
g463
sg75
(lp1300
g68
(g89
g70
NtRp1301
(dp1302
g73
(dp1303
g93
g94
ssg82
g1297
sg75
(lp1304
S'wsgi_url_scheme'
p1305
asbag68
(g89
g70
NtRp1306
(dp1307
g73
(dp1308
g100
g101
ssg82
g1297
sg75
(lp1309
S':'
asbag68
(g89
g70
NtRp1310
(dp1311
g73
(dp1312
sg82
g1297
sg75
(lp1313
g68
(g69
g70
NtRp1314
(dp1315
g73
(dp1316
g81
I4
ssg82
g1310
sg75
(lp1317
S'http'
p1318
asbasbasbag68
(g84
g70
NtRp1319
(dp1320
g73
(dp1321
sg82
g463
sg75
(lp1322
g68
(g89
g70
NtRp1323
(dp1324
g73
(dp1325
g93
g94
ssg82
g1319
sg75
(lp1326
S'wsgi_version'
p1327
asbag68
(g89
g70
NtRp1328
(dp1329
g73
(dp1330
g100
g101
ssg82
g1319
sg75
(lp1331
S':'
asbag68
(g89
g70
NtRp1332
(dp1333
g73
(dp1334
sg82
g1319
sg75
(lp1335
g68
(g69
g70
NtRp1336
(dp1337
g73
(dp1338
g81
I4
ssg82
g1332
sg75
(lp1339
g68
(g77
g70
NtRp1340
(dp1341
g73
(dp1342
g81
I3
ssg82
Nsg75
(lp1343
g68
(g84
g70
NtRp1344
(dp1345
g73
(dp1346
sg82
g1340
sg75
(lp1347
g68
(g89
g70
NtRp1348
(dp1349
g73
(dp1350
sg82
g1344
sg75
(lp1351
g68
(g69
g70
NtRp1352
(dp1353
g73
(dp1354
g81
I3
ssg82
g1348
sg75
(lp1355
S'1'
asbasbasbag68
(g84
g70
NtRp1356
(dp1357
g73
(dp1358
sg82
g1340
sg75
(lp1359
g68
(g89
g70
NtRp1360
(dp1361
g73
(dp1362
sg82
g1356
sg75
(lp1363
g68
(g69
g70
NtRp1364
(dp1365
g73
(dp1366
g81
I3
ssg82
g1360
sg75
(lp1367
S'0'
asbasbasbasbasbasbasbasbasbasbasbag68
(g84
g70
NtRp1368
(dp1369
g73
(dp1370
sg82
g78
sg75
(lp1371
g68
(g89
g70
NtRp1372
(dp1373
g73
(dp1374
g93
g94
ssg82
g1368
sg75
(lp1375
S'extension'
p1376
asbag68
(g89
g70
NtRp1377
(dp1378
g73
(dp1379
g100
g101
ssg82
g1368
sg75
(lp1380
S':'
asbag68
(g89
g70
NtRp1381
(dp1382
g73
(dp1383
sg82
g1368
sg75
(lp1384
g68
(g69
g70
NtRp1385
(dp1386
g73
(dp1387
g81
I5
ssg82
g1381
sg75
(lp1388
S'html'
p1389
asbasbasbag68
(g84
g70
NtRp1390
(dp1391
g73
(dp1392
sg82
g78
sg75
(lp1393
g68
(g89
g70
NtRp1394
(dp1395
g73
(dp1396
g93
g94
ssg82
g1390
sg75
(lp1397
S'folder'
p1398
asbag68
(g89
g70
NtRp1399
(dp1400
g73
(dp1401
g100
g101
ssg82
g1390
sg75
(lp1402
S':'
asbag68
(g89
g70
NtRp1403
(dp1404
g73
(dp1405
sg82
g1390
sg75
(lp1406
g68
(g69
g70
NtRp1407
(dp1408
g73
(dp1409
g81
I5
ssg82
g1403
sg75
(lp1410
S'C:\\Python27\\web2py\\applications\\Graficos\\'
p1411
asbasbasbag68
(g84
g70
NtRp1412
(dp1413
g73
(dp1414
sg82
g78
sg75
(lp1415
g68
(g89
g70
NtRp1416
(dp1417
g73
(dp1418
g93
g94
ssg82
g1412
sg75
(lp1419
S'function'
p1420
asbag68
(g89
g70
NtRp1421
(dp1422
g73
(dp1423
g100
g101
ssg82
g1412
sg75
(lp1424
S':'
asbag68
(g89
g70
NtRp1425
(dp1426
g73
(dp1427
sg82
g1412
sg75
(lp1428
g68
(g69
g70
NtRp1429
(dp1430
g73
(dp1431
g81
I5
ssg82
g1425
sg75
(lp1432
S'index'
p1433
asbasbasbag68
(g84
g70
NtRp1434
(dp1435
g73
(dp1436
sg82
g78
sg75
(lp1437
g68
(g89
g70
NtRp1438
(dp1439
g73
(dp1440
g93
g94
ssg82
g1434
sg75
(lp1441
S'get_vars'
p1442
asbag68
(g89
g70
NtRp1443
(dp1444
g73
(dp1445
g100
g101
ssg82
g1434
sg75
(lp1446
S':'
asbag68
(g89
g70
NtRp1447
(dp1448
g73
(dp1449
sg82
g1434
sg75
(lp1450
g68
(g69
g70
NtRp1451
(dp1452
g73
(dp1453
g81
I5
ssg82
g1447
sg75
(lp1454
g68
(g77
g70
NtRp1455
(dp1456
g73
(dp1457
g81
I4
ssg82
Nsg75
(lp1458
sbasbasbasbag68
(g84
g70
NtRp1459
(dp1460
g73
(dp1461
sg82
g78
sg75
(lp1462
g68
(g89
g70
NtRp1463
(dp1464
g73
(dp1465
g93
g94
ssg82
g1459
sg75
(lp1466
S'global_settings'
p1467
asbag68
(g89
g70
NtRp1468
(dp1469
g73
(dp1470
g100
g101
ssg82
g1459
sg75
(lp1471
S':'
asbag68
(g89
g70
NtRp1472
(dp1473
g73
(dp1474
sg82
g1459
sg75
(lp1475
g68
(g69
g70
NtRp1476
(dp1477
g73
(dp1478
g81
I5
ssg82
g1472
sg75
(lp1479
g68
(g77
g70
NtRp1480
(dp1481
g73
(dp1482
g81
I4
ssg82
Nsg75
(lp1483
g68
(g84
g70
NtRp1484
(dp1485
g73
(dp1486
sg82
g1480
sg75
(lp1487
g68
(g89
g70
NtRp1488
(dp1489
g73
(dp1490
g93
g94
ssg82
g1484
sg75
(lp1491
g475
asbag68
(g89
g70
NtRp1492
(dp1493
g73
(dp1494
g100
g101
ssg82
g1484
sg75
(lp1495
S':'
asbag68
(g89
g70
NtRp1496
(dp1497
g73
(dp1498
sg82
g1484
sg75
(lp1499
g68
(g69
g70
NtRp1500
(dp1501
g73
(dp1502
g81
I4
ssg82
g1496
sg75
(lp1503
S"set(['C:\\\\Python27\\\\web2py\\\\applications\\\\Graficos\\\\'])"
p1504
asbasbasbag68
(g84
g70
NtRp1505
(dp1506
g73
(dp1507
sg82
g1480
sg75
(lp1508
g68
(g89
g70
NtRp1509
(dp1510
g73
(dp1511
g93
g94
ssg82
g1505
sg75
(lp1512
g497
asbag68
(g89
g70
NtRp1513
(dp1514
g73
(dp1515
g100
g101
ssg82
g1505
sg75
(lp1516
S':'
asbag68
(g89
g70
NtRp1517
(dp1518
g73
(dp1519
sg82
g1505
sg75
(lp1520
g68
(g69
g70
NtRp1521
(dp1522
g73
(dp1523
g81
I4
ssg82
g1517
sg75
(lp1524
g510
asbasbasbag68
(g84
g70
NtRp1525
(dp1526
g73
(dp1527
sg82
g1480
sg75
(lp1528
g68
(g89
g70
NtRp1529
(dp1530
g73
(dp1531
g93
g94
ssg82
g1525
sg75
(lp1532
g519
asbag68
(g89
g70
NtRp1533
(dp1534
g73
(dp1535
g100
g101
ssg82
g1525
sg75
(lp1536
S':'
asbag68
(g89
g70
NtRp1537
(dp1538
g73
(dp1539
sg82
g1525
sg75
(lp1540
g68
(g69
g70
NtRp1541
(dp1542
g73
(dp1543
g81
I4
ssg82
g1537
sg75
(lp1544
g68
(g77
g70
NtRp1545
(dp1546
g73
(dp1547
g81
I3
ssg82
Nsg75
(lp1548
sbasbasbasbag68
(g84
g70
NtRp1549
(dp1550
g73
(dp1551
sg82
g1480
sg75
(lp1552
g68
(g89
g70
NtRp1553
(dp1554
g73
(dp1555
g93
g94
ssg82
g1549
sg75
(lp1556
g544
asbag68
(g89
g70
NtRp1557
(dp1558
g73
(dp1559
g100
g101
ssg82
g1549
sg75
(lp1560
S':'
asbag68
(g89
g70
NtRp1561
(dp1562
g73
(dp1563
sg82
g1549
sg75
(lp1564
g68
(g69
g70
NtRp1565
(dp1566
g73
(dp1567
g81
I4
ssg82
g1561
sg75
(lp1568
S"<Values at 0x391da30: {'verbose': False, 'ip': '127.0.0.1', 'shutdown_timeout': 5, 'taskbar': False, 'nocron': False, 'pid_filename': 'httpserver.pid', 'maxthreads': None, 'softcron': False, 'server_name': 'VSWKS071', 'bpython': False, 'nogui': False, 'port': 8000, 'extcron': False, 'debuglevel': 30, 'test': None, 'folder': 'C:\\\\Python27\\\\web2py', 'config': '', 'import_models': False, 'winservice': '', 'shell': None, 'run': '', 'log_filename': 'httpserver.log', 'args': [''], 'socket_timeout': 5, 'ssl_ca_certificate': None, 'scheduler': None, 'profiler_filename': None, 'ssl_private_key': '', 'password': '123', 'request_queue_size': 5, 'ssl_certificate': '', 'cronjob': False, 'numthreads': None, 'quiet': False, 'interfaces': None, 'minthreads': None, 'timeout': 10, 'plain': False, 'nobanner': False}>"
p1569
asbasbasbag68
(g84
g70
NtRp1570
(dp1571
g73
(dp1572
sg82
g1480
sg75
(lp1573
g68
(g89
g70
NtRp1574
(dp1575
g73
(dp1576
g93
g94
ssg82
g1570
sg75
(lp1577
g566
asbag68
(g89
g70
NtRp1578
(dp1579
g73
(dp1580
g100
g101
ssg82
g1570
sg75
(lp1581
S':'
asbag68
(g89
g70
NtRp1582
(dp1583
g73
(dp1584
sg82
g1570
sg75
(lp1585
g68
(g69
g70
NtRp1586
(dp1587
g73
(dp1588
g81
I4
ssg82
g1582
sg75
(lp1589
S'set([])'
p1590
asbasbasbag68
(g84
g70
NtRp1591
(dp1592
g73
(dp1593
sg82
g1480
sg75
(lp1594
g68
(g89
g70
NtRp1595
(dp1596
g73
(dp1597
g93
g94
ssg82
g1591
sg75
(lp1598
g588
asbag68
(g89
g70
NtRp1599
(dp1600
g73
(dp1601
g100
g101
ssg82
g1591
sg75
(lp1602
S':'
asbag68
(g89
g70
NtRp1603
(dp1604
g73
(dp1605
sg82
g1591
sg75
(lp1606
g68
(g69
g70
NtRp1607
(dp1608
g73
(dp1609
g81
I4
ssg82
g1603
sg75
(lp1610
g111
asbasbasbag68
(g84
g70
NtRp1611
(dp1612
g73
(dp1613
sg82
g1480
sg75
(lp1614
g68
(g89
g70
NtRp1615
(dp1616
g73
(dp1617
g93
g94
ssg82
g1611
sg75
(lp1618
g609
asbag68
(g89
g70
NtRp1619
(dp1620
g73
(dp1621
g100
g101
ssg82
g1611
sg75
(lp1622
S':'
asbag68
(g89
g70
NtRp1623
(dp1624
g73
(dp1625
sg82
g1611
sg75
(lp1626
g68
(g69
g70
NtRp1627
(dp1628
g73
(dp1629
g81
I4
ssg82
g1623
sg75
(lp1630
g622
asbasbasbag68
(g84
g70
NtRp1631
(dp1632
g73
(dp1633
sg82
g1480
sg75
(lp1634
g68
(g89
g70
NtRp1635
(dp1636
g73
(dp1637
g93
g94
ssg82
g1631
sg75
(lp1638
g785
asbag68
(g89
g70
NtRp1639
(dp1640
g73
(dp1641
g100
g101
ssg82
g1631
sg75
(lp1642
S':'
asbag68
(g89
g70
NtRp1643
(dp1644
g73
(dp1645
sg82
g1631
sg75
(lp1646
g68
(g69
g70
NtRp1647
(dp1648
g73
(dp1649
g81
I4
ssg82
g1643
sg75
(lp1650
g111
asbasbasbag68
(g84
g70
NtRp1651
(dp1652
g73
(dp1653
sg82
g1480
sg75
(lp1654
g68
(g89
g70
NtRp1655
(dp1656
g73
(dp1657
g93
g94
ssg82
g1651
sg75
(lp1658
g806
asbag68
(g89
g70
NtRp1659
(dp1660
g73
(dp1661
g100
g101
ssg82
g1651
sg75
(lp1662
S':'
asbag68
(g89
g70
NtRp1663
(dp1664
g73
(dp1665
sg82
g1651
sg75
(lp1666
g68
(g69
g70
NtRp1667
(dp1668
g73
(dp1669
g81
I4
ssg82
g1663
sg75
(lp1670
g111
asbasbasbag68
(g84
g70
NtRp1671
(dp1672
g73
(dp1673
sg82
g1480
sg75
(lp1674
g68
(g89
g70
NtRp1675
(dp1676
g73
(dp1677
g93
g94
ssg82
g1671
sg75
(lp1678
g1044
asbag68
(g89
g70
NtRp1679
(dp1680
g73
(dp1681
g100
g101
ssg82
g1671
sg75
(lp1682
S':'
asbag68
(g89
g70
NtRp1683
(dp1684
g73
(dp1685
sg82
g1671
sg75
(lp1686
g68
(g69
g70
NtRp1687
(dp1688
g73
(dp1689
g81
I4
ssg82
g1683
sg75
(lp1690
g1057
asbasbasbag68
(g84
g70
NtRp1691
(dp1692
g73
(dp1693
sg82
g1480
sg75
(lp1694
g68
(g89
g70
NtRp1695
(dp1696
g73
(dp1697
g93
g94
ssg82
g1691
sg75
(lp1698
g1087
asbag68
(g89
g70
NtRp1699
(dp1700
g73
(dp1701
g100
g101
ssg82
g1691
sg75
(lp1702
S':'
asbag68
(g89
g70
NtRp1703
(dp1704
g73
(dp1705
sg82
g1691
sg75
(lp1706
g68
(g69
g70
NtRp1707
(dp1708
g73
(dp1709
g81
I4
ssg82
g1703
sg75
(lp1710
g68
(g77
g70
NtRp1711
(dp1712
g73
(dp1713
g81
I3
ssg82
Nsg75
(lp1714
g68
(g84
g70
NtRp1715
(dp1716
g73
(dp1717
sg82
g1711
sg75
(lp1718
g68
(g89
g70
NtRp1719
(dp1720
g73
(dp1721
sg82
g1715
sg75
(lp1722
g68
(g69
g70
NtRp1723
(dp1724
g73
(dp1725
g81
I3
ssg82
g1719
sg75
(lp1726
S'1'
asbasbasbag68
(g84
g70
NtRp1727
(dp1728
g73
(dp1729
sg82
g1711
sg75
(lp1730
g68
(g89
g70
NtRp1731
(dp1732
g73
(dp1733
sg82
g1727
sg75
(lp1734
g68
(g69
g70
NtRp1735
(dp1736
g73
(dp1737
g81
I3
ssg82
g1731
sg75
(lp1738
S'99'
p1739
asbasbasbag68
(g84
g70
NtRp1740
(dp1741
g73
(dp1742
sg82
g1711
sg75
(lp1743
g68
(g89
g70
NtRp1744
(dp1745
g73
(dp1746
sg82
g1740
sg75
(lp1747
g68
(g69
g70
NtRp1748
(dp1749
g73
(dp1750
g81
I3
ssg82
g1744
sg75
(lp1751
S'7'
asbasbasbag68
(g84
g70
NtRp1752
(dp1753
g73
(dp1754
sg82
g1711
sg75
(lp1755
g68
(g89
g70
NtRp1756
(dp1757
g73
(dp1758
sg82
g1752
sg75
(lp1759
g68
(g69
g70
NtRp1760
(dp1761
g73
(dp1762
g81
I3
ssg82
g1756
sg75
(lp1763
S'datetime.datetime(2012, 3, 4, 22, 12, 8)'
p1764
asbasbasbag68
(g84
g70
NtRp1765
(dp1766
g73
(dp1767
sg82
g1711
sg75
(lp1768
g68
(g89
g70
NtRp1769
(dp1770
g73
(dp1771
sg82
g1765
sg75
(lp1772
g68
(g69
g70
NtRp1773
(dp1774
g73
(dp1775
g81
I3
ssg82
g1769
sg75
(lp1776
g1166
asbasbasbasbasbasbasbasbasbasbasbag68
(g84
g70
NtRp1777
(dp1778
g73
(dp1779
sg82
g78
sg75
(lp1780
g68
(g89
g70
NtRp1781
(dp1782
g73
(dp1783
g93
g94
ssg82
g1777
sg75
(lp1784
S'is_https'
p1785
asbag68
(g89
g70
NtRp1786
(dp1787
g73
(dp1788
g100
g101
ssg82
g1777
sg75
(lp1789
S':'
asbag68
(g89
g70
NtRp1790
(dp1791
g73
(dp1792
sg82
g1777
sg75
(lp1793
g68
(g69
g70
NtRp1794
(dp1795
g73
(dp1796
g81
I5
ssg82
g1790
sg75
(lp1797
g111
asbasbasbag68
(g84
g70
NtRp1798
(dp1799
g73
(dp1800
sg82
g78
sg75
(lp1801
g68
(g89
g70
NtRp1802
(dp1803
g73
(dp1804
g93
g94
ssg82
g1798
sg75
(lp1805
S'is_local'
p1806
asbag68
(g89
g70
NtRp1807
(dp1808
g73
(dp1809
g100
g101
ssg82
g1798
sg75
(lp1810
S':'
asbag68
(g89
g70
NtRp1811
(dp1812
g73
(dp1813
sg82
g1798
sg75
(lp1814
g68
(g69
g70
NtRp1815
(dp1816
g73
(dp1817
g81
I5
ssg82
g1811
sg75
(lp1818
g1275
asbasbasbag68
(g84
g70
NtRp1819
(dp1820
g73
(dp1821
sg82
g78
sg75
(lp1822
g68
(g89
g70
NtRp1823
(dp1824
g73
(dp1825
g93
g94
ssg82
g1819
sg75
(lp1826
S'is_restful'
p1827
asbag68
(g89
g70
NtRp1828
(dp1829
g73
(dp1830
g100
g101
ssg82
g1819
sg75
(lp1831
S':'
asbag68
(g89
g70
NtRp1832
(dp1833
g73
(dp1834
sg82
g1819
sg75
(lp1835
g68
(g69
g70
NtRp1836
(dp1837
g73
(dp1838
g81
I5
ssg82
g1832
sg75
(lp1839
g111
asbasbasbag68
(g84
g70
NtRp1840
(dp1841
g73
(dp1842
sg82
g78
sg75
(lp1843
g68
(g89
g70
NtRp1844
(dp1845
g73
(dp1846
g93
g94
ssg82
g1840
sg75
(lp1847
S'now'
p1848
asbag68
(g89
g70
NtRp1849
(dp1850
g73
(dp1851
g100
g101
ssg82
g1840
sg75
(lp1852
S':'
asbag68
(g89
g70
NtRp1853
(dp1854
g73
(dp1855
sg82
g1840
sg75
(lp1856
g68
(g69
g70
NtRp1857
(dp1858
g73
(dp1859
g81
I5
ssg82
g1853
sg75
(lp1860
S'datetime.datetime(2013, 1, 10, 14, 18, 48, 526000)'
p1861
asbasbasbag68
(g84
g70
NtRp1862
(dp1863
g73
(dp1864
sg82
g78
sg75
(lp1865
g68
(g89
g70
NtRp1866
(dp1867
g73
(dp1868
g93
g94
ssg82
g1862
sg75
(lp1869
S'post_vars'
p1870
asbag68
(g89
g70
NtRp1871
(dp1872
g73
(dp1873
g100
g101
ssg82
g1862
sg75
(lp1874
S':'
asbag68
(g89
g70
NtRp1875
(dp1876
g73
(dp1877
sg82
g1862
sg75
(lp1878
g68
(g69
g70
NtRp1879
(dp1880
g73
(dp1881
g81
I5
ssg82
g1875
sg75
(lp1882
g68
(g77
g70
NtRp1883
(dp1884
g73
(dp1885
g81
I4
ssg82
Nsg75
(lp1886
sbasbasbasbag68
(g84
g70
NtRp1887
(dp1888
g73
(dp1889
sg82
g78
sg75
(lp1890
g68
(g89
g70
NtRp1891
(dp1892
g73
(dp1893
g93
g94
ssg82
g1887
sg75
(lp1894
S'url'
p1895
asbag68
(g89
g70
NtRp1896
(dp1897
g73
(dp1898
g100
g101
ssg82
g1887
sg75
(lp1899
S':'
asbag68
(g89
g70
NtRp1900
(dp1901
g73
(dp1902
sg82
g1887
sg75
(lp1903
g68
(g69
g70
NtRp1904
(dp1905
g73
(dp1906
g81
I5
ssg82
g1900
sg75
(lp1907
S'/Graficos/default/index'
p1908
asbasbasbag68
(g84
g70
NtRp1909
(dp1910
g73
(dp1911
sg82
g78
sg75
(lp1912
g68
(g89
g70
NtRp1913
(dp1914
g73
(dp1915
g93
g94
ssg82
g1909
sg75
(lp1916
S'utcnow'
p1917
asbag68
(g89
g70
NtRp1918
(dp1919
g73
(dp1920
g100
g101
ssg82
g1909
sg75
(lp1921
S':'
asbag68
(g89
g70
NtRp1922
(dp1923
g73
(dp1924
sg82
g1909
sg75
(lp1925
g68
(g69
g70
NtRp1926
(dp1927
g73
(dp1928
g81
I5
ssg82
g1922
sg75
(lp1929
S'datetime.datetime(2013, 1, 10, 17, 18, 48, 563000)'
p1930
asbasbasbag68
(g84
g70
NtRp1931
(dp1932
g73
(dp1933
sg82
g78
sg75
(lp1934
g68
(g89
g70
NtRp1935
(dp1936
g73
(dp1937
g93
g94
ssg82
g1931
sg75
(lp1938
S'uuid'
p1939
asbag68
(g89
g70
NtRp1940
(dp1941
g73
(dp1942
g100
g101
ssg82
g1931
sg75
(lp1943
S':'
asbag68
(g89
g70
NtRp1944
(dp1945
g73
(dp1946
sg82
g1931
sg75
(lp1947
g68
(g69
g70
NtRp1948
(dp1949
g73
(dp1950
g81
I5
ssg82
g1944
sg75
(lp1951
S'Graficos/127.0.0.1.2013-01-10.14-18-48.a1ff5e04-5cfe-4e60-abbd-53da1680f151'
p1952
asbasbasbag68
(g84
g70
NtRp1953
(dp1954
g73
(dp1955
sg82
g78
sg75
(lp1956
g68
(g89
g70
NtRp1957
(dp1958
g73
(dp1959
g93
g94
ssg82
g1953
sg75
(lp1960
S'vars'
p1961
asbag68
(g89
g70
NtRp1962
(dp1963
g73
(dp1964
g100
g101
ssg82
g1953
sg75
(lp1965
S':'
asbag68
(g89
g70
NtRp1966
(dp1967
g73
(dp1968
sg82
g1953
sg75
(lp1969
g68
(g69
g70
NtRp1970
(dp1971
g73
(dp1972
g81
I5
ssg82
g1966
sg75
(lp1973
g68
(g77
g70
NtRp1974
(dp1975
g73
(dp1976
g81
I4
ssg82
Nsg75
(lp1977
sbasbasbasbag68
(g84
g70
NtRp1978
(dp1979
g73
(dp1980
sg82
g78
sg75
(lp1981
g68
(g89
g70
NtRp1982
(dp1983
g73
(dp1984
g93
g94
ssg82
g1978
sg75
(lp1985
S'wsgi'
p1986
asbag68
(g89
g70
NtRp1987
(dp1988
g73
(dp1989
g100
g101
ssg82
g1978
sg75
(lp1990
S':'
asbag68
(g89
g70
NtRp1991
(dp1992
g73
(dp1993
sg82
g1978
sg75
(lp1994
g68
(g69
g70
NtRp1995
(dp1996
g73
(dp1997
g81
I5
ssg82
g1991
sg75
(lp1998
g68
(g77
g70
NtRp1999
(dp2000
g73
(dp2001
g81
I4
ssg82
Nsg75
(lp2002
g68
(g84
g70
NtRp2003
(dp2004
g73
(dp2005
sg82
g1999
sg75
(lp2006
g68
(g89
g70
NtRp2007
(dp2008
g73
(dp2009
g93
g94
ssg82
g2003
sg75
(lp2010
S'environ'
p2011
asbag68
(g89
g70
NtRp2012
(dp2013
g73
(dp2014
g100
g101
ssg82
g2003
sg75
(lp2015
S':'
asbag68
(g89
g70
NtRp2016
(dp2017
g73
(dp2018
sg82
g2003
sg75
(lp2019
g68
(g69
g70
NtRp2020
(dp2021
g73
(dp2022
g81
I4
ssg82
g2016
sg75
(lp2023
g68
(g77
g70
NtRp2024
(dp2025
g73
(dp2026
g81
I3
ssg82
Nsg75
(lp2027
g68
(g84
g70
NtRp2028
(dp2029
g73
(dp2030
sg82
g2024
sg75
(lp2031
g68
(g89
g70
NtRp2032
(dp2033
g73
(dp2034
g93
g94
ssg82
g2028
sg75
(lp2035
S'HTTP_ACCEPT'
p2036
asbag68
(g89
g70
NtRp2037
(dp2038
g73
(dp2039
g100
g101
ssg82
g2028
sg75
(lp2040
S':'
asbag68
(g89
g70
NtRp2041
(dp2042
g73
(dp2043
sg82
g2028
sg75
(lp2044
g68
(g69
g70
NtRp2045
(dp2046
g73
(dp2047
g81
I3
ssg82
g2041
sg75
(lp2048
g644
asbasbasbag68
(g84
g70
NtRp2049
(dp2050
g73
(dp2051
sg82
g2024
sg75
(lp2052
g68
(g89
g70
NtRp2053
(dp2054
g73
(dp2055
g93
g94
ssg82
g2049
sg75
(lp2056
S'HTTP_ACCEPT_ENCODING'
p2057
asbag68
(g89
g70
NtRp2058
(dp2059
g73
(dp2060
g100
g101
ssg82
g2049
sg75
(lp2061
S':'
asbag68
(g89
g70
NtRp2062
(dp2063
g73
(dp2064
sg82
g2049
sg75
(lp2065
g68
(g69
g70
NtRp2066
(dp2067
g73
(dp2068
g81
I3
ssg82
g2062
sg75
(lp2069
g666
asbasbasbag68
(g84
g70
NtRp2070
(dp2071
g73
(dp2072
sg82
g2024
sg75
(lp2073
g68
(g89
g70
NtRp2074
(dp2075
g73
(dp2076
g93
g94
ssg82
g2070
sg75
(lp2077
S'HTTP_ACCEPT_LANGUAGE'
p2078
asbag68
(g89
g70
NtRp2079
(dp2080
g73
(dp2081
g100
g101
ssg82
g2070
sg75
(lp2082
S':'
asbag68
(g89
g70
NtRp2083
(dp2084
g73
(dp2085
sg82
g2070
sg75
(lp2086
g68
(g69
g70
NtRp2087
(dp2088
g73
(dp2089
g81
I3
ssg82
g2083
sg75
(lp2090
g688
asbasbasbag68
(g84
g70
NtRp2091
(dp2092
g73
(dp2093
sg82
g2024
sg75
(lp2094
g68
(g89
g70
NtRp2095
(dp2096
g73
(dp2097
g93
g94
ssg82
g2091
sg75
(lp2098
S'HTTP_CONNECTION'
p2099
asbag68
(g89
g70
NtRp2100
(dp2101
g73
(dp2102
g100
g101
ssg82
g2091
sg75
(lp2103
S':'
asbag68
(g89
g70
NtRp2104
(dp2105
g73
(dp2106
sg82
g2091
sg75
(lp2107
g68
(g69
g70
NtRp2108
(dp2109
g73
(dp2110
g81
I3
ssg82
g2104
sg75
(lp2111
g710
asbasbasbag68
(g84
g70
NtRp2112
(dp2113
g73
(dp2114
sg82
g2024
sg75
(lp2115
g68
(g89
g70
NtRp2116
(dp2117
g73
(dp2118
g93
g94
ssg82
g2112
sg75
(lp2119
S'HTTP_COOKIE'
p2120
asbag68
(g89
g70
NtRp2121
(dp2122
g73
(dp2123
g100
g101
ssg82
g2112
sg75
(lp2124
S':'
asbag68
(g89
g70
NtRp2125
(dp2126
g73
(dp2127
sg82
g2112
sg75
(lp2128
g68
(g69
g70
NtRp2129
(dp2130
g73
(dp2131
g81
I3
ssg82
g2125
sg75
(lp2132
g732
asbasbasbag68
(g84
g70
NtRp2133
(dp2134
g73
(dp2135
sg82
g2024
sg75
(lp2136
g68
(g89
g70
NtRp2137
(dp2138
g73
(dp2139
g93
g94
ssg82
g2133
sg75
(lp2140
S'HTTP_HOST'
p2141
asbag68
(g89
g70
NtRp2142
(dp2143
g73
(dp2144
g100
g101
ssg82
g2133
sg75
(lp2145
S':'
asbag68
(g89
g70
NtRp2146
(dp2147
g73
(dp2148
sg82
g2133
sg75
(lp2149
g68
(g69
g70
NtRp2150
(dp2151
g73
(dp2152
g81
I3
ssg82
g2146
sg75
(lp2153
g754
asbasbasbag68
(g84
g70
NtRp2154
(dp2155
g73
(dp2156
sg82
g2024
sg75
(lp2157
g68
(g89
g70
NtRp2158
(dp2159
g73
(dp2160
g93
g94
ssg82
g2154
sg75
(lp2161
S'HTTP_USER_AGENT'
p2162
asbag68
(g89
g70
NtRp2163
(dp2164
g73
(dp2165
g100
g101
ssg82
g2154
sg75
(lp2166
S':'
asbag68
(g89
g70
NtRp2167
(dp2168
g73
(dp2169
sg82
g2154
sg75
(lp2170
g68
(g69
g70
NtRp2171
(dp2172
g73
(dp2173
g81
I3
ssg82
g2167
sg75
(lp2174
g776
asbasbasbag68
(g84
g70
NtRp2175
(dp2176
g73
(dp2177
sg82
g2024
sg75
(lp2178
g68
(g89
g70
NtRp2179
(dp2180
g73
(dp2181
g93
g94
ssg82
g2175
sg75
(lp2182
S'PATH_INFO'
p2183
asbag68
(g89
g70
NtRp2184
(dp2185
g73
(dp2186
g100
g101
ssg82
g2175
sg75
(lp2187
S':'
asbag68
(g89
g70
NtRp2188
(dp2189
g73
(dp2190
sg82
g2175
sg75
(lp2191
g68
(g69
g70
NtRp2192
(dp2193
g73
(dp2194
g81
I3
ssg82
g2188
sg75
(lp2195
g840
asbasbasbag68
(g84
g70
NtRp2196
(dp2197
g73
(dp2198
sg82
g2024
sg75
(lp2199
g68
(g89
g70
NtRp2200
(dp2201
g73
(dp2202
g93
g94
ssg82
g2196
sg75
(lp2203
S'QUERY_STRING'
p2204
asbag68
(g89
g70
NtRp2205
(dp2206
g73
(dp2207
g100
g101
ssg82
g2196
sg75
(lp2208
S':'
asbag68
(g89
g70
NtRp2209
(dp2210
g73
(dp2211
sg82
g2196
sg75
(lp2212
g68
(g69
g70
NtRp2213
(dp2214
g73
(dp2215
g81
I3
ssg82
g2209
sg75
(lp2216
S''
asbasbasbag68
(g84
g70
NtRp2217
(dp2218
g73
(dp2219
sg82
g2024
sg75
(lp2220
g68
(g89
g70
NtRp2221
(dp2222
g73
(dp2223
g93
g94
ssg82
g2217
sg75
(lp2224
S'REMOTE_ADDR'
p2225
asbag68
(g89
g70
NtRp2226
(dp2227
g73
(dp2228
g100
g101
ssg82
g2217
sg75
(lp2229
S':'
asbag68
(g89
g70
NtRp2230
(dp2231
g73
(dp2232
sg82
g2217
sg75
(lp2233
g68
(g69
g70
NtRp2234
(dp2235
g73
(dp2236
g81
I3
ssg82
g2230
sg75
(lp2237
g201
asbasbasbag68
(g84
g70
NtRp2238
(dp2239
g73
(dp2240
sg82
g2024
sg75
(lp2241
g68
(g89
g70
NtRp2242
(dp2243
g73
(dp2244
g93
g94
ssg82
g2238
sg75
(lp2245
S'REMOTE_PORT'
p2246
asbag68
(g89
g70
NtRp2247
(dp2248
g73
(dp2249
g100
g101
ssg82
g2238
sg75
(lp2250
S':'
asbag68
(g89
g70
NtRp2251
(dp2252
g73
(dp2253
sg82
g2238
sg75
(lp2254
g68
(g69
g70
NtRp2255
(dp2256
g73
(dp2257
g81
I3
ssg82
g2251
sg75
(lp2258
g904
asbasbasbag68
(g84
g70
NtRp2259
(dp2260
g73
(dp2261
sg82
g2024
sg75
(lp2262
g68
(g89
g70
NtRp2263
(dp2264
g73
(dp2265
g93
g94
ssg82
g2259
sg75
(lp2266
S'REQUEST_METHOD'
p2267
asbag68
(g89
g70
NtRp2268
(dp2269
g73
(dp2270
g100
g101
ssg82
g2259
sg75
(lp2271
S':'
asbag68
(g89
g70
NtRp2272
(dp2273
g73
(dp2274
sg82
g2259
sg75
(lp2275
g68
(g69
g70
NtRp2276
(dp2277
g73
(dp2278
g81
I3
ssg82
g2272
sg75
(lp2279
g926
asbasbasbag68
(g84
g70
NtRp2280
(dp2281
g73
(dp2282
sg82
g2024
sg75
(lp2283
g68
(g89
g70
NtRp2284
(dp2285
g73
(dp2286
g93
g94
ssg82
g2280
sg75
(lp2287
S'SCRIPT_NAME'
p2288
asbag68
(g89
g70
NtRp2289
(dp2290
g73
(dp2291
g100
g101
ssg82
g2280
sg75
(lp2292
S':'
asbag68
(g89
g70
NtRp2293
(dp2294
g73
(dp2295
sg82
g2280
sg75
(lp2296
g68
(g69
g70
NtRp2297
(dp2298
g73
(dp2299
g81
I3
ssg82
g2293
sg75
(lp2300
S''
asbasbasbag68
(g84
g70
NtRp2301
(dp2302
g73
(dp2303
sg82
g2024
sg75
(lp2304
g68
(g89
g70
NtRp2305
(dp2306
g73
(dp2307
g93
g94
ssg82
g2301
sg75
(lp2308
S'SERVER_NAME'
p2309
asbag68
(g89
g70
NtRp2310
(dp2311
g73
(dp2312
g100
g101
ssg82
g2301
sg75
(lp2313
S':'
asbag68
(g89
g70
NtRp2314
(dp2315
g73
(dp2316
sg82
g2301
sg75
(lp2317
g68
(g69
g70
NtRp2318
(dp2319
g73
(dp2320
g81
I3
ssg82
g2314
sg75
(lp2321
g969
asbasbasbag68
(g84
g70
NtRp2322
(dp2323
g73
(dp2324
sg82
g2024
sg75
(lp2325
g68
(g89
g70
NtRp2326
(dp2327
g73
(dp2328
g93
g94
ssg82
g2322
sg75
(lp2329
S'SERVER_PORT'
p2330
asbag68
(g89
g70
NtRp2331
(dp2332
g73
(dp2333
g100
g101
ssg82
g2322
sg75
(lp2334
S':'
asbag68
(g89
g70
NtRp2335
(dp2336
g73
(dp2337
sg82
g2322
sg75
(lp2338
g68
(g69
g70
NtRp2339
(dp2340
g73
(dp2341
g81
I3
ssg82
g2335
sg75
(lp2342
g991
asbasbasbag68
(g84
g70
NtRp2343
(dp2344
g73
(dp2345
sg82
g2024
sg75
(lp2346
g68
(g89
g70
NtRp2347
(dp2348
g73
(dp2349
g93
g94
ssg82
g2343
sg75
(lp2350
S'SERVER_PROTOCOL'
p2351
asbag68
(g89
g70
NtRp2352
(dp2353
g73
(dp2354
g100
g101
ssg82
g2343
sg75
(lp2355
S':'
asbag68
(g89
g70
NtRp2356
(dp2357
g73
(dp2358
sg82
g2343
sg75
(lp2359
g68
(g69
g70
NtRp2360
(dp2361
g73
(dp2362
g81
I3
ssg82
g2356
sg75
(lp2363
g1013
asbasbasbag68
(g84
g70
NtRp2364
(dp2365
g73
(dp2366
sg82
g2024
sg75
(lp2367
g68
(g89
g70
NtRp2368
(dp2369
g73
(dp2370
g93
g94
ssg82
g2364
sg75
(lp2371
S'SERVER_SOFTWARE'
p2372
asbag68
(g89
g70
NtRp2373
(dp2374
g73
(dp2375
g100
g101
ssg82
g2364
sg75
(lp2376
S':'
asbag68
(g89
g70
NtRp2377
(dp2378
g73
(dp2379
sg82
g2364
sg75
(lp2380
g68
(g69
g70
NtRp2381
(dp2382
g73
(dp2383
g81
I3
ssg82
g2377
sg75
(lp2384
g1035
asbasbasbag68
(g84
g70
NtRp2385
(dp2386
g73
(dp2387
sg82
g2024
sg75
(lp2388
g68
(g89
g70
NtRp2389
(dp2390
g73
(dp2391
g93
g94
ssg82
g2385
sg75
(lp2392
S'wsgi.errors'
p2393
asbag68
(g89
g70
NtRp2394
(dp2395
g73
(dp2396
g100
g101
ssg82
g2385
sg75
(lp2397
S':'
asbag68
(g89
g70
NtRp2398
(dp2399
g73
(dp2400
sg82
g2385
sg75
(lp2401
g68
(g69
g70
NtRp2402
(dp2403
g73
(dp2404
g81
I3
ssg82
g2398
sg75
(lp2405
S"<open file '<stderr>', mode 'w' at 0x01E150D0>"
p2406
asbasbasbag68
(g84
g70
NtRp2407
(dp2408
g73
(dp2409
sg82
g2024
sg75
(lp2410
g68
(g89
g70
NtRp2411
(dp2412
g73
(dp2413
g93
g94
ssg82
g2407
sg75
(lp2414
S'wsgi.file_wrapper'
p2415
asbag68
(g89
g70
NtRp2416
(dp2417
g73
(dp2418
g100
g101
ssg82
g2407
sg75
(lp2419
S':'
asbag68
(g89
g70
NtRp2420
(dp2421
g73
(dp2422
sg82
g2407
sg75
(lp2423
g68
(g69
g70
NtRp2424
(dp2425
g73
(dp2426
g81
I3
ssg82
g2420
sg75
(lp2427
S'<class wsgiref.util.FileWrapper at 0x03832768>'
p2428
asbasbasbag68
(g84
g70
NtRp2429
(dp2430
g73
(dp2431
sg82
g2024
sg75
(lp2432
g68
(g89
g70
NtRp2433
(dp2434
g73
(dp2435
g93
g94
ssg82
g2429
sg75
(lp2436
S'wsgi.input'
p2437
asbag68
(g89
g70
NtRp2438
(dp2439
g73
(dp2440
g100
g101
ssg82
g2429
sg75
(lp2441
S':'
asbag68
(g89
g70
NtRp2442
(dp2443
g73
(dp2444
sg82
g2429
sg75
(lp2445
g68
(g69
g70
NtRp2446
(dp2447
g73
(dp2448
g81
I3
ssg82
g2442
sg75
(lp2449
S'<cStringIO.StringO object at 0x0396B2A0>'
p2450
asbasbasbag68
(g84
g70
NtRp2451
(dp2452
g73
(dp2453
sg82
g2024
sg75
(lp2454
g68
(g89
g70
NtRp2455
(dp2456
g73
(dp2457
g93
g94
ssg82
g2451
sg75
(lp2458
S'wsgi.multiprocess'
p2459
asbag68
(g89
g70
NtRp2460
(dp2461
g73
(dp2462
g100
g101
ssg82
g2451
sg75
(lp2463
S':'
asbag68
(g89
g70
NtRp2464
(dp2465
g73
(dp2466
sg82
g2451
sg75
(lp2467
g68
(g69
g70
NtRp2468
(dp2469
g73
(dp2470
g81
I3
ssg82
g2464
sg75
(lp2471
g111
asbasbasbag68
(g84
g70
NtRp2472
(dp2473
g73
(dp2474
sg82
g2024
sg75
(lp2475
g68
(g89
g70
NtRp2476
(dp2477
g73
(dp2478
g93
g94
ssg82
g2472
sg75
(lp2479
S'wsgi.multithread'
p2480
asbag68
(g89
g70
NtRp2481
(dp2482
g73
(dp2483
g100
g101
ssg82
g2472
sg75
(lp2484
S':'
asbag68
(g89
g70
NtRp2485
(dp2486
g73
(dp2487
sg82
g2472
sg75
(lp2488
g68
(g69
g70
NtRp2489
(dp2490
g73
(dp2491
g81
I3
ssg82
g2485
sg75
(lp2492
g1275
asbasbasbag68
(g84
g70
NtRp2493
(dp2494
g73
(dp2495
sg82
g2024
sg75
(lp2496
g68
(g89
g70
NtRp2497
(dp2498
g73
(dp2499
g93
g94
ssg82
g2493
sg75
(lp2500
S'wsgi.run_once'
p2501
asbag68
(g89
g70
NtRp2502
(dp2503
g73
(dp2504
g100
g101
ssg82
g2493
sg75
(lp2505
S':'
asbag68
(g89
g70
NtRp2506
(dp2507
g73
(dp2508
sg82
g2493
sg75
(lp2509
g68
(g69
g70
NtRp2510
(dp2511
g73
(dp2512
g81
I3
ssg82
g2506
sg75
(lp2513
g111
asbasbasbag68
(g84
g70
NtRp2514
(dp2515
g73
(dp2516
sg82
g2024
sg75
(lp2517
g68
(g89
g70
NtRp2518
(dp2519
g73
(dp2520
g93
g94
ssg82
g2514
sg75
(lp2521
S'wsgi.url_scheme'
p2522
asbag68
(g89
g70
NtRp2523
(dp2524
g73
(dp2525
g100
g101
ssg82
g2514
sg75
(lp2526
S':'
asbag68
(g89
g70
NtRp2527
(dp2528
g73
(dp2529
sg82
g2514
sg75
(lp2530
g68
(g69
g70
NtRp2531
(dp2532
g73
(dp2533
g81
I3
ssg82
g2527
sg75
(lp2534
g1318
asbasbasbag68
(g84
g70
NtRp2535
(dp2536
g73
(dp2537
sg82
g2024
sg75
(lp2538
g68
(g89
g70
NtRp2539
(dp2540
g73
(dp2541
g93
g94
ssg82
g2535
sg75
(lp2542
S'wsgi.version'
p2543
asbag68
(g89
g70
NtRp2544
(dp2545
g73
(dp2546
g100
g101
ssg82
g2535
sg75
(lp2547
S':'
asbag68
(g89
g70
NtRp2548
(dp2549
g73
(dp2550
sg82
g2535
sg75
(lp2551
g68
(g69
g70
NtRp2552
(dp2553
g73
(dp2554
g81
I3
ssg82
g2548
sg75
(lp2555
S'1'
asbasbasbasbasbasbasbasbasbasbasbasbasbsS'frames'
p2556
(lp2557
(dp2558
S'file'
p2559
S'C:\\Python27\\web2py\\gluon\\restricted.py'
p2560
sS'dump'
p2561
(dp2562
S'code'
p2563
S"'# -*- coding: utf-8 -*-\\n\\nfrom gluon.custom_impor...n colunas\\nresponse._vars=response._caller(index)\\n'"
p2564
sS'layer'
p2565
S"r'C:\\Python27\\web2py\\applications\\Graficos\\controllers/default.py'"
p2566
sS'global compile2'
p2567
S'<function compile2>'
p2568
sS'ccode'
p2569
S'undefined'
p2570
ssS'lnum'
p2571
I204
sS'lines'
p2572
(dp2573
I199
S"    environment['__name__'] = '__restricted__'"
p2574
sI200
S'    try:'
p2575
sI201
S'        if type(code) == types.CodeType:'
p2576
sI202
S'            ccode = code'
p2577
sI203
S'        else:'
p2578
sI204
S'            ccode = compile2(code,layer)'
p2579
sI205
S'        exec ccode in environment'
p2580
sI206
S'    except HTTP:'
p2581
sI207
S'        raise'
p2582
sI208
S'    except RestrictedError:'
p2583
ssS'call'
p2584
S"(code='# -*- coding: utf-8 -*-\\n\\nfrom gluon.custom_impor...n colunas\\nresponse._vars=response._caller(index)\\n', environment={'A': <class 'gluon.html.A'>, 'B': <class 'gluon.html.B'>, 'BEAUTIFY': <class 'gluon.html.BEAUTIFY'>, 'BODY': <class 'gluon.html.BODY'>, 'BR': <class 'gluon.html.BR'>, 'BUTTON': <class 'gluon.html.BUTTON'>, 'CAT': <class 'gluon.html.CAT'>, 'CENTER': <class 'gluon.html.CENTER'>, 'CLEANUP': <class 'gluon.validators.CLEANUP'>, 'CODE': <class 'gluon.html.CODE'>, ...}, layer=r'C:\\Python27\\web2py\\applications\\Graficos\\controllers/default.py')"
p2585
sS'func'
p2586
S'restricted'
p2587
sa(dp2588
g2559
S'C:\\Python27\\web2py\\gluon\\restricted.py'
p2589
sg2561
(dp2590
S'builtincompile'
p2591
S'<built-in function compile>'
p2592
sS'code'
p2593
S"'# -*- coding: utf-8 -*-\\n\\nfrom gluon.custom_impor...n colunas\\nresponse._vars=response._caller(index)\\n'"
p2594
sS'code.rstrip'
p2595
S'<built-in method rstrip of str object>'
p2596
sS').replace'
p2597
g2570
sS'layer'
p2598
S"r'C:\\Python27\\web2py\\applications\\Graficos\\controllers/default.py'"
p2599
ssg2571
I189
sg2572
(dp2600
I192
S'    """'
p2601
sI193
S'    runs code in environment and returns the output. if an exception occurs'
p2602
sI184
S''
sI185
S'def compile2(code,layer):'
p2603
sI186
S'    """'
p2604
sI187
S"    The +'\\n' is necessary else compile fails when code ends in a comment."
p2605
sI188
S'    """'
p2606
sI189
S"    return compile(code.rstrip().replace('\\r\\n','\\n')+'\\n', layer, 'exec')"
p2607
sI190
S''
sI191
S"def restricted(code, environment=None, layer='Unknown'):"
p2608
ssg2584
S"(code='# -*- coding: utf-8 -*-\\n\\nfrom gluon.custom_impor...n colunas\\nresponse._vars=response._caller(index)\\n', layer=r'C:\\Python27\\web2py\\applications\\Graficos\\controllers/default.py')"
p2609
sg2586
S'compile2'
p2610
sasS'pyver'
p2611
S'Python 2.7.3: C:\\Python27\\python.exe'
p2612
sS'session'
p2613
g68
(g69
g70
NtRp2614
(dp2615
g73
(dp2616
sg75
(lp2617
g68
(g77
g70
NtRp2618
(dp2619
g73
(dp2620
g81
I5
ssg82
Nsg75
(lp2621
sbasbsS'etype'
p2622
S"<type 'exceptions.SyntaxError'>"
p2623
sS'date'
p2624
S'Thu Jan 10 14:18:50 2013'
p2625
sS'response'
p2626
g68
(g69
g70
NtRp2627
(dp2628
g73
(dp2629
sg75
(lp2630
g68
(g77
g70
NtRp2631
(dp2632
g73
(dp2633
g81
I5
ssg82
Nsg75
(lp2634
g68
(g84
g70
NtRp2635
(dp2636
g73
(dp2637
sg82
g2631
sg75
(lp2638
g68
(g89
g70
NtRp2639
(dp2640
g73
(dp2641
g93
g94
ssg82
g2635
sg75
(lp2642
g166
asbag68
(g89
g70
NtRp2643
(dp2644
g73
(dp2645
g100
g101
ssg82
g2635
sg75
(lp2646
S':'
asbag68
(g89
g70
NtRp2647
(dp2648
g73
(dp2649
sg82
g2635
sg75
(lp2650
g68
(g69
g70
NtRp2651
(dp2652
g73
(dp2653
g81
I5
ssg82
g2647
sg75
(lp2654
S'<cStringIO.StringO object at 0x0396B020>'
p2655
asbasbasbag68
(g84
g70
NtRp2656
(dp2657
g73
(dp2658
sg82
g2631
sg75
(lp2659
g68
(g89
g70
NtRp2660
(dp2661
g73
(dp2662
g93
g94
ssg82
g2656
sg75
(lp2663
g232
asbag68
(g89
g70
NtRp2664
(dp2665
g73
(dp2666
g100
g101
ssg82
g2656
sg75
(lp2667
S':'
asbag68
(g89
g70
NtRp2668
(dp2669
g73
(dp2670
sg82
g2656
sg75
(lp2671
g68
(g69
g70
NtRp2672
(dp2673
g73
(dp2674
g81
I5
ssg82
g2668
sg75
(lp2675
g68
(g77
g70
NtRp2676
(dp2677
g73
(dp2678
g81
I4
ssg82
Nsg75
(lp2679
g68
(g84
g70
NtRp2680
(dp2681
g73
(dp2682
sg82
g2676
sg75
(lp2683
g68
(g89
g70
NtRp2684
(dp2685
g73
(dp2686
g93
g94
ssg82
g2680
sg75
(lp2687
S'session_id_graficos'
p2688
asbag68
(g89
g70
NtRp2689
(dp2690
g73
(dp2691
g100
g101
ssg82
g2680
sg75
(lp2692
S':'
asbag68
(g89
g70
NtRp2693
(dp2694
g73
(dp2695
sg82
g2680
sg75
(lp2696
g68
(g69
g70
NtRp2697
(dp2698
g73
(dp2699
g81
I4
ssg82
g2693
sg75
(lp2700
g68
(g77
g70
NtRp2701
(dp2702
g73
(dp2703
g81
I3
ssg82
Nsg75
(lp2704
g68
(g84
g70
NtRp2705
(dp2706
g73
(dp2707
sg82
g2701
sg75
(lp2708
g68
(g89
g70
NtRp2709
(dp2710
g73
(dp2711
g93
g94
ssg82
g2705
sg75
(lp2712
g282
asbag68
(g89
g70
NtRp2713
(dp2714
g73
(dp2715
g100
g101
ssg82
g2705
sg75
(lp2716
S':'
asbag68
(g89
g70
NtRp2717
(dp2718
g73
(dp2719
sg82
g2705
sg75
(lp2720
g68
(g69
g70
NtRp2721
(dp2722
g73
(dp2723
g81
I3
ssg82
g2717
sg75
(lp2724
S''
asbasbasbag68
(g84
g70
NtRp2725
(dp2726
g73
(dp2727
sg82
g2701
sg75
(lp2728
g68
(g89
g70
NtRp2729
(dp2730
g73
(dp2731
g93
g94
ssg82
g2725
sg75
(lp2732
g303
asbag68
(g89
g70
NtRp2733
(dp2734
g73
(dp2735
g100
g101
ssg82
g2725
sg75
(lp2736
S':'
asbag68
(g89
g70
NtRp2737
(dp2738
g73
(dp2739
sg82
g2725
sg75
(lp2740
g68
(g69
g70
NtRp2741
(dp2742
g73
(dp2743
g81
I3
ssg82
g2737
sg75
(lp2744
S''
asbasbasbag68
(g84
g70
NtRp2745
(dp2746
g73
(dp2747
sg82
g2701
sg75
(lp2748
g68
(g89
g70
NtRp2749
(dp2750
g73
(dp2751
g93
g94
ssg82
g2745
sg75
(lp2752
g324
asbag68
(g89
g70
NtRp2753
(dp2754
g73
(dp2755
g100
g101
ssg82
g2745
sg75
(lp2756
S':'
asbag68
(g89
g70
NtRp2757
(dp2758
g73
(dp2759
sg82
g2745
sg75
(lp2760
g68
(g69
g70
NtRp2761
(dp2762
g73
(dp2763
g81
I3
ssg82
g2757
sg75
(lp2764
S''
asbasbasbag68
(g84
g70
NtRp2765
(dp2766
g73
(dp2767
sg82
g2701
sg75
(lp2768
g68
(g89
g70
NtRp2769
(dp2770
g73
(dp2771
g93
g94
ssg82
g2765
sg75
(lp2772
g345
asbag68
(g89
g70
NtRp2773
(dp2774
g73
(dp2775
g100
g101
ssg82
g2765
sg75
(lp2776
S':'
asbag68
(g89
g70
NtRp2777
(dp2778
g73
(dp2779
sg82
g2765
sg75
(lp2780
g68
(g69
g70
NtRp2781
(dp2782
g73
(dp2783
g81
I3
ssg82
g2777
sg75
(lp2784
S''
asbasbasbag68
(g84
g70
NtRp2785
(dp2786
g73
(dp2787
sg82
g2701
sg75
(lp2788
g68
(g89
g70
NtRp2789
(dp2790
g73
(dp2791
g93
g94
ssg82
g2785
sg75
(lp2792
g366
asbag68
(g89
g70
NtRp2793
(dp2794
g73
(dp2795
g100
g101
ssg82
g2785
sg75
(lp2796
S':'
asbag68
(g89
g70
NtRp2797
(dp2798
g73
(dp2799
sg82
g2785
sg75
(lp2800
g68
(g69
g70
NtRp2801
(dp2802
g73
(dp2803
g81
I3
ssg82
g2797
sg75
(lp2804
S''
asbasbasbag68
(g84
g70
NtRp2805
(dp2806
g73
(dp2807
sg82
g2701
sg75
(lp2808
g68
(g89
g70
NtRp2809
(dp2810
g73
(dp2811
g93
g94
ssg82
g2805
sg75
(lp2812
g387
asbag68
(g89
g70
NtRp2813
(dp2814
g73
(dp2815
g100
g101
ssg82
g2805
sg75
(lp2816
S':'
asbag68
(g89
g70
NtRp2817
(dp2818
g73
(dp2819
sg82
g2805
sg75
(lp2820
g68
(g69
g70
NtRp2821
(dp2822
g73
(dp2823
g81
I3
ssg82
g2817
sg75
(lp2824
S'/'
asbasbasbag68
(g84
g70
NtRp2825
(dp2826
g73
(dp2827
sg82
g2701
sg75
(lp2828
g68
(g89
g70
NtRp2829
(dp2830
g73
(dp2831
g93
g94
ssg82
g2825
sg75
(lp2832
g408
asbag68
(g89
g70
NtRp2833
(dp2834
g73
(dp2835
g100
g101
ssg82
g2825
sg75
(lp2836
S':'
asbag68
(g89
g70
NtRp2837
(dp2838
g73
(dp2839
sg82
g2825
sg75
(lp2840
g68
(g69
g70
NtRp2841
(dp2842
g73
(dp2843
g81
I3
ssg82
g2837
sg75
(lp2844
S''
asbasbasbag68
(g84
g70
NtRp2845
(dp2846
g73
(dp2847
sg82
g2701
sg75
(lp2848
g68
(g89
g70
NtRp2849
(dp2850
g73
(dp2851
g93
g94
ssg82
g2845
sg75
(lp2852
g429
asbag68
(g89
g70
NtRp2853
(dp2854
g73
(dp2855
g100
g101
ssg82
g2845
sg75
(lp2856
S':'
asbag68
(g89
g70
NtRp2857
(dp2858
g73
(dp2859
sg82
g2845
sg75
(lp2860
g68
(g69
g70
NtRp2861
(dp2862
g73
(dp2863
g81
I3
ssg82
g2857
sg75
(lp2864
S''
asbasbasbasbasbasbasbasbasbasbasbag68
(g84
g70
NtRp2865
(dp2866
g73
(dp2867
sg82
g2631
sg75
(lp2868
g68
(g89
g70
NtRp2869
(dp2870
g73
(dp2871
g93
g94
ssg82
g2865
sg75
(lp2872
S'delimiters'
p2873
asbag68
(g89
g70
NtRp2874
(dp2875
g73
(dp2876
g100
g101
ssg82
g2865
sg75
(lp2877
S':'
asbag68
(g89
g70
NtRp2878
(dp2879
g73
(dp2880
sg82
g2865
sg75
(lp2881
g68
(g69
g70
NtRp2882
(dp2883
g73
(dp2884
g81
I5
ssg82
g2878
sg75
(lp2885
g68
(g77
g70
NtRp2886
(dp2887
g73
(dp2888
g81
I4
ssg82
Nsg75
(lp2889
g68
(g84
g70
NtRp2890
(dp2891
g73
(dp2892
sg82
g2886
sg75
(lp2893
g68
(g89
g70
NtRp2894
(dp2895
g73
(dp2896
sg82
g2890
sg75
(lp2897
g68
(g69
g70
NtRp2898
(dp2899
g73
(dp2900
g81
I4
ssg82
g2894
sg75
(lp2901
S'{{'
p2902
asbasbasbag68
(g84
g70
NtRp2903
(dp2904
g73
(dp2905
sg82
g2886
sg75
(lp2906
g68
(g89
g70
NtRp2907
(dp2908
g73
(dp2909
sg82
g2903
sg75
(lp2910
g68
(g69
g70
NtRp2911
(dp2912
g73
(dp2913
g81
I4
ssg82
g2907
sg75
(lp2914
S'}}'
p2915
asbasbasbasbasbasbasbag68
(g84
g70
NtRp2916
(dp2917
g73
(dp2918
sg82
g2631
sg75
(lp2919
g68
(g89
g70
NtRp2920
(dp2921
g73
(dp2922
g93
g94
ssg82
g2916
sg75
(lp2923
S'files'
p2924
asbag68
(g89
g70
NtRp2925
(dp2926
g73
(dp2927
g100
g101
ssg82
g2916
sg75
(lp2928
S':'
asbag68
(g89
g70
NtRp2929
(dp2930
g73
(dp2931
sg82
g2916
sg75
(lp2932
g68
(g69
g70
NtRp2933
(dp2934
g73
(dp2935
g81
I5
ssg82
g2929
sg75
(lp2936
g68
(g77
g70
NtRp2937
(dp2938
g73
(dp2939
g81
I4
ssg82
Nsg75
(lp2940
sbasbasbasbag68
(g84
g70
NtRp2941
(dp2942
g73
(dp2943
sg82
g2631
sg75
(lp2944
g68
(g89
g70
NtRp2945
(dp2946
g73
(dp2947
g93
g94
ssg82
g2941
sg75
(lp2948
S'flash'
p2949
asbag68
(g89
g70
NtRp2950
(dp2951
g73
(dp2952
g100
g101
ssg82
g2941
sg75
(lp2953
S':'
asbag68
(g89
g70
NtRp2954
(dp2955
g73
(dp2956
sg82
g2941
sg75
(lp2957
g68
(g69
g70
NtRp2958
(dp2959
g73
(dp2960
g81
I5
ssg82
g2954
sg75
(lp2961
S''
asbasbasbag68
(g84
g70
NtRp2962
(dp2963
g73
(dp2964
sg82
g2631
sg75
(lp2965
g68
(g89
g70
NtRp2966
(dp2967
g73
(dp2968
g93
g94
ssg82
g2962
sg75
(lp2969
S'generic_patterns'
p2970
asbag68
(g89
g70
NtRp2971
(dp2972
g73
(dp2973
g100
g101
ssg82
g2962
sg75
(lp2974
S':'
asbag68
(g89
g70
NtRp2975
(dp2976
g73
(dp2977
sg82
g2962
sg75
(lp2978
g68
(g69
g70
NtRp2979
(dp2980
g73
(dp2981
g81
I5
ssg82
g2975
sg75
(lp2982
g68
(g77
g70
NtRp2983
(dp2984
g73
(dp2985
g81
I4
ssg82
Nsg75
(lp2986
sbasbasbasbag68
(g84
g70
NtRp2987
(dp2988
g73
(dp2989
sg82
g2631
sg75
(lp2990
g68
(g89
g70
NtRp2991
(dp2992
g73
(dp2993
g93
g94
ssg82
g2987
sg75
(lp2994
S'headers'
p2995
asbag68
(g89
g70
NtRp2996
(dp2997
g73
(dp2998
g100
g101
ssg82
g2987
sg75
(lp2999
S':'
asbag68
(g89
g70
NtRp3000
(dp3001
g73
(dp3002
sg82
g2987
sg75
(lp3003
g68
(g69
g70
NtRp3004
(dp3005
g73
(dp3006
g81
I5
ssg82
g3000
sg75
(lp3007
g68
(g77
g70
NtRp3008
(dp3009
g73
(dp3010
g81
I4
ssg82
Nsg75
(lp3011
g68
(g84
g70
NtRp3012
(dp3013
g73
(dp3014
sg82
g3008
sg75
(lp3015
g68
(g89
g70
NtRp3016
(dp3017
g73
(dp3018
g93
g94
ssg82
g3012
sg75
(lp3019
S'Cache-Control'
p3020
asbag68
(g89
g70
NtRp3021
(dp3022
g73
(dp3023
g100
g101
ssg82
g3012
sg75
(lp3024
S':'
asbag68
(g89
g70
NtRp3025
(dp3026
g73
(dp3027
sg82
g3012
sg75
(lp3028
g68
(g69
g70
NtRp3029
(dp3030
g73
(dp3031
g81
I4
ssg82
g3025
sg75
(lp3032
S'no-store, no-cache, must-revalidate, post-check=0, pre-check=0'
p3033
asbasbasbag68
(g84
g70
NtRp3034
(dp3035
g73
(dp3036
sg82
g3008
sg75
(lp3037
g68
(g89
g70
NtRp3038
(dp3039
g73
(dp3040
g93
g94
ssg82
g3034
sg75
(lp3041
S'Content-Type'
p3042
asbag68
(g89
g70
NtRp3043
(dp3044
g73
(dp3045
g100
g101
ssg82
g3034
sg75
(lp3046
S':'
asbag68
(g89
g70
NtRp3047
(dp3048
g73
(dp3049
sg82
g3034
sg75
(lp3050
g68
(g69
g70
NtRp3051
(dp3052
g73
(dp3053
g81
I4
ssg82
g3047
sg75
(lp3054
S'text/html; charset=utf-8'
p3055
asbasbasbag68
(g84
g70
NtRp3056
(dp3057
g73
(dp3058
sg82
g3008
sg75
(lp3059
g68
(g89
g70
NtRp3060
(dp3061
g73
(dp3062
g93
g94
ssg82
g3056
sg75
(lp3063
S'Expires'
p3064
asbag68
(g89
g70
NtRp3065
(dp3066
g73
(dp3067
g100
g101
ssg82
g3056
sg75
(lp3068
S':'
asbag68
(g89
g70
NtRp3069
(dp3070
g73
(dp3071
sg82
g3056
sg75
(lp3072
g68
(g69
g70
NtRp3073
(dp3074
g73
(dp3075
g81
I4
ssg82
g3069
sg75
(lp3076
S'Thu, 10 Jan 2013 17:18:48 GMT'
p3077
asbasbasbag68
(g84
g70
NtRp3078
(dp3079
g73
(dp3080
sg82
g3008
sg75
(lp3081
g68
(g89
g70
NtRp3082
(dp3083
g73
(dp3084
g93
g94
ssg82
g3078
sg75
(lp3085
S'Pragma'
p3086
asbag68
(g89
g70
NtRp3087
(dp3088
g73
(dp3089
g100
g101
ssg82
g3078
sg75
(lp3090
S':'
asbag68
(g89
g70
NtRp3091
(dp3092
g73
(dp3093
sg82
g3078
sg75
(lp3094
g68
(g69
g70
NtRp3095
(dp3096
g73
(dp3097
g81
I4
ssg82
g3091
sg75
(lp3098
S'no-cache'
p3099
asbasbasbag68
(g84
g70
NtRp3100
(dp3101
g73
(dp3102
sg82
g3008
sg75
(lp3103
g68
(g89
g70
NtRp3104
(dp3105
g73
(dp3106
g93
g94
ssg82
g3100
sg75
(lp3107
S'X-Powered-By'
p3108
asbag68
(g89
g70
NtRp3109
(dp3110
g73
(dp3111
g100
g101
ssg82
g3100
sg75
(lp3112
S':'
asbag68
(g89
g70
NtRp3113
(dp3114
g73
(dp3115
sg82
g3100
sg75
(lp3116
g68
(g69
g70
NtRp3117
(dp3118
g73
(dp3119
g81
I4
ssg82
g3113
sg75
(lp3120
S'web2py'
p3121
asbasbasbasbasbasbasbag68
(g84
g70
NtRp3122
(dp3123
g73
(dp3124
sg82
g2631
sg75
(lp3125
g68
(g89
g70
NtRp3126
(dp3127
g73
(dp3128
g93
g94
ssg82
g3122
sg75
(lp3129
S'menu'
p3130
asbag68
(g89
g70
NtRp3131
(dp3132
g73
(dp3133
g100
g101
ssg82
g3122
sg75
(lp3134
S':'
asbag68
(g89
g70
NtRp3135
(dp3136
g73
(dp3137
sg82
g3122
sg75
(lp3138
g68
(g69
g70
NtRp3139
(dp3140
g73
(dp3141
g81
I5
ssg82
g3135
sg75
(lp3142
g68
(g77
g70
NtRp3143
(dp3144
g73
(dp3145
g81
I4
ssg82
Nsg75
(lp3146
sbasbasbasbag68
(g84
g70
NtRp3147
(dp3148
g73
(dp3149
sg82
g2631
sg75
(lp3150
g68
(g89
g70
NtRp3151
(dp3152
g73
(dp3153
g93
g94
ssg82
g3147
sg75
(lp3154
S'meta'
p3155
asbag68
(g89
g70
NtRp3156
(dp3157
g73
(dp3158
g100
g101
ssg82
g3147
sg75
(lp3159
S':'
asbag68
(g89
g70
NtRp3160
(dp3161
g73
(dp3162
sg82
g3147
sg75
(lp3163
g68
(g69
g70
NtRp3164
(dp3165
g73
(dp3166
g81
I5
ssg82
g3160
sg75
(lp3167
g68
(g77
g70
NtRp3168
(dp3169
g73
(dp3170
g81
I4
ssg82
Nsg75
(lp3171
sbasbasbasbag68
(g84
g70
NtRp3172
(dp3173
g73
(dp3174
sg82
g2631
sg75
(lp3175
g68
(g89
g70
NtRp3176
(dp3177
g73
(dp3178
g93
g94
ssg82
g3172
sg75
(lp3179
S'postprocessing'
p3180
asbag68
(g89
g70
NtRp3181
(dp3182
g73
(dp3183
g100
g101
ssg82
g3172
sg75
(lp3184
S':'
asbag68
(g89
g70
NtRp3185
(dp3186
g73
(dp3187
sg82
g3172
sg75
(lp3188
g68
(g69
g70
NtRp3189
(dp3190
g73
(dp3191
g81
I5
ssg82
g3185
sg75
(lp3192
g68
(g77
g70
NtRp3193
(dp3194
g73
(dp3195
g81
I4
ssg82
Nsg75
(lp3196
sbasbasbasbag68
(g84
g70
NtRp3197
(dp3198
g73
(dp3199
sg82
g2631
sg75
(lp3200
g68
(g89
g70
NtRp3201
(dp3202
g73
(dp3203
g93
g94
ssg82
g3197
sg75
(lp3204
S'session_filename'
p3205
asbag68
(g89
g70
NtRp3206
(dp3207
g73
(dp3208
g100
g101
ssg82
g3197
sg75
(lp3209
S':'
asbag68
(g89
g70
NtRp3210
(dp3211
g73
(dp3212
sg82
g3197
sg75
(lp3213
g68
(g69
g70
NtRp3214
(dp3215
g73
(dp3216
g81
I5
ssg82
g3210
sg75
(lp3217
S'C:\\Python27\\web2py\\applications\\Graficos\\sessions\\127.0.0.1-5889efcc-64fe-4de1-833b-593771a9d06b'
p3218
asbasbasbag68
(g84
g70
NtRp3219
(dp3220
g73
(dp3221
sg82
g2631
sg75
(lp3222
g68
(g89
g70
NtRp3223
(dp3224
g73
(dp3225
g93
g94
ssg82
g3219
sg75
(lp3226
S'session_id'
p3227
asbag68
(g89
g70
NtRp3228
(dp3229
g73
(dp3230
g100
g101
ssg82
g3219
sg75
(lp3231
S':'
asbag68
(g89
g70
NtRp3232
(dp3233
g73
(dp3234
sg82
g3219
sg75
(lp3235
g68
(g69
g70
NtRp3236
(dp3237
g73
(dp3238
g81
I5
ssg82
g3232
sg75
(lp3239
S'127.0.0.1-5889efcc-64fe-4de1-833b-593771a9d06b'
p3240
asbasbasbag68
(g84
g70
NtRp3241
(dp3242
g73
(dp3243
sg82
g2631
sg75
(lp3244
g68
(g89
g70
NtRp3245
(dp3246
g73
(dp3247
g93
g94
ssg82
g3241
sg75
(lp3248
S'session_id_name'
p3249
asbag68
(g89
g70
NtRp3250
(dp3251
g73
(dp3252
g100
g101
ssg82
g3241
sg75
(lp3253
S':'
asbag68
(g89
g70
NtRp3254
(dp3255
g73
(dp3256
sg82
g3241
sg75
(lp3257
g68
(g69
g70
NtRp3258
(dp3259
g73
(dp3260
g81
I5
ssg82
g3254
sg75
(lp3261
g2688
asbasbasbag68
(g84
g70
NtRp3262
(dp3263
g73
(dp3264
sg82
g2631
sg75
(lp3265
g68
(g89
g70
NtRp3266
(dp3267
g73
(dp3268
g93
g94
ssg82
g3262
sg75
(lp3269
S'session_new'
p3270
asbag68
(g89
g70
NtRp3271
(dp3272
g73
(dp3273
g100
g101
ssg82
g3262
sg75
(lp3274
S':'
asbag68
(g89
g70
NtRp3275
(dp3276
g73
(dp3277
sg82
g3262
sg75
(lp3278
g68
(g69
g70
NtRp3279
(dp3280
g73
(dp3281
g81
I5
ssg82
g3275
sg75
(lp3282
g1275
asbasbasbag68
(g84
g70
NtRp3283
(dp3284
g73
(dp3285
sg82
g2631
sg75
(lp3286
g68
(g89
g70
NtRp3287
(dp3288
g73
(dp3289
g93
g94
ssg82
g3283
sg75
(lp3290
S'status'
p3291
asbag68
(g89
g70
NtRp3292
(dp3293
g73
(dp3294
g100
g101
ssg82
g3283
sg75
(lp3295
S':'
asbag68
(g89
g70
NtRp3296
(dp3297
g73
(dp3298
sg82
g3283
sg75
(lp3299
g68
(g69
g70
NtRp3300
(dp3301
g73
(dp3302
g81
I5
ssg82
g3296
sg75
(lp3303
S'200'
p3304
asbasbasbag68
(g84
g70
NtRp3305
(dp3306
g73
(dp3307
sg82
g2631
sg75
(lp3308
g68
(g89
g70
NtRp3309
(dp3310
g73
(dp3311
g93
g94
ssg82
g3305
sg75
(lp3312
g1939
asbag68
(g89
g70
NtRp3313
(dp3314
g73
(dp3315
g100
g101
ssg82
g3305
sg75
(lp3316
S':'
asbag68
(g89
g70
NtRp3317
(dp3318
g73
(dp3319
sg82
g3305
sg75
(lp3320
g68
(g69
g70
NtRp3321
(dp3322
g73
(dp3323
g81
I5
ssg82
g3317
sg75
(lp3324
g1952
asbasbasbag68
(g84
g70
NtRp3325
(dp3326
g73
(dp3327
sg82
g2631
sg75
(lp3328
g68
(g89
g70
NtRp3329
(dp3330
g73
(dp3331
g93
g94
ssg82
g3325
sg75
(lp3332
S'view'
p3333
asbag68
(g89
g70
NtRp3334
(dp3335
g73
(dp3336
g100
g101
ssg82
g3325
sg75
(lp3337
S':'
asbag68
(g89
g70
NtRp3338
(dp3339
g73
(dp3340
sg82
g3325
sg75
(lp3341
g68
(g69
g70
NtRp3342
(dp3343
g73
(dp3344
g81
I5
ssg82
g3338
sg75
(lp3345
S'default/index.html'
p3346
asbasbasbasbasbsS'locals'
p3347
(dp3348
g4
S"r'C:\\Python27\\web2py\\applications\\Graficos\\controllers/default.py'"
p3349
sg6
S"'# -*- coding: utf-8 -*-\\n\\nfrom gluon.custom_impor...n colunas\\nresponse._vars=response._caller(index)\\n'"
p3350
sssS'traceback'
p3351
S'Traceback (most recent call last):\n  File "C:\\Python27\\web2py\\gluon\\restricted.py", line 204, in restricted\n    ccode = compile2(code,layer)\n  File "C:\\Python27\\web2py\\gluon\\restricted.py", line 189, in compile2\n    return compile(code.rstrip().replace(\'\\r\\n\',\'\\n\')+\'\\n\', layer, \'exec\')\n  File "C:\\Python27\\web2py\\applications\\Graficos\\controllers/default.py", line 6\n    import highcharts-thema\n                     ^\nSyntaxError: invalid syntax\n'
p3352
s.