(dp1
S'output'
p2
S"<type 'exceptions.SyntaxError'> invalid syntax (highcharts.py, line 40)"
p3
sS'layer'
p4
S'C:\\Python27\\web2py\\applications\\Graficos\\controllers/tela.py'
p5
sS'code'
p6
S'# -*- coding: utf-8 -*-\n\nfrom gluon.custom_import import track_changes\ntrack_changes(True)\n\nfrom highcharts import highcharts\n\n\ndef index():\n    \n    chart = highcharts()\n    a = 100000\n    chart = chart.chart()\n    \n        \n    largura = 1440\n    altura = 860\n\n    nmlinhas = 2\n    nmcolunas = 1\n\n\n    a = html(chart, largura, altura)\n\n    return a\n\ndef html(strchart,largura, altura):\n\n\n    html = HTML(\n            HEAD   (\n\n                    META(http_equiv=\'Content-Type\',_content=\'text/html\',_charset=\'utf-8\'),\n                    TITLE("graficos"),\n                    SCRIPT(_src=\'/graficos/static/js/jquery.min.js\'),\n                    SCRIPT(_src=\'/graficos/static/js/highcharts.js\'), \n                    SCRIPT(XML(strchart), _type=\'text/javascript\'),\n                   ),\n\n            BODY    (\n                        DIV(_id=\'container\', _style=\'width: 800px; height: 400px; margin: 0 auto\'),\n                        _bgcolor=\'FFFFFF\',\n                        _class=\'no-js\'\n\n                    )\n                )\n            \n    return html\n\n\n\nresponse._vars=response._caller(index)\n'
p7
sS'snapshot'
p8
(dp9
S'exception'
p10
(dp11
S'__getslice__'
p12
S"<method-wrapper '__getslice__' of exceptions.SyntaxError object>"
p13
sS'text'
p14
S"'    def \\n'"
p15
sS'__str__'
p16
S"<method-wrapper '__str__' of exceptions.SyntaxError object>"
p17
sS'__reduce__'
p18
S'<built-in method __reduce__ of exceptions.SyntaxError object>'
p19
sS'__dict__'
p20
S'{}'
p21
sS'__sizeof__'
p22
S'<built-in method __sizeof__ of exceptions.SyntaxError object>'
p23
sS'__init__'
p24
S"<method-wrapper '__init__' of exceptions.SyntaxError object>"
p25
sS'__setattr__'
p26
S"<method-wrapper '__setattr__' of exceptions.SyntaxError object>"
p27
sS'__reduce_ex__'
p28
S'<built-in method __reduce_ex__ of exceptions.SyntaxError object>'
p29
sS'__new__'
p30
S'<built-in method __new__ of type object>'
p31
sS'__format__'
p32
S'<built-in method __format__ of exceptions.SyntaxError object>'
p33
sS'__class__'
p34
S"<type 'exceptions.SyntaxError'>"
p35
sS'filename'
p36
S"r'applications\\Graficos\\modules\\highcharts.py'"
p37
sS'lineno'
p38
S'40'
p39
sS'msg'
p40
S"'invalid syntax'"
p41
sS'__doc__'
p42
S"'Invalid syntax.'"
p43
sS'__getitem__'
p44
S"<method-wrapper '__getitem__' of exceptions.SyntaxError object>"
p45
sS'__setstate__'
p46
S'<built-in method __setstate__ of exceptions.SyntaxError object>'
p47
sS'__getattribute__'
p48
S"<method-wrapper '__getattribute__' of exceptions.SyntaxError object>"
p49
sS'print_file_and_line'
p50
S'None'
p51
sS'args'
p52
S"('invalid syntax', (r'applications\\Graficos\\modules\\highcharts.py', 40, 9, '    def \\n'))"
p53
sS'__subclasshook__'
p54
S'<built-in method __subclasshook__ of type object>'
p55
sS'offset'
p56
S'9'
sS'__unicode__'
p57
S'<built-in method __unicode__ of exceptions.SyntaxError object>'
p58
sS'__delattr__'
p59
S"<method-wrapper '__delattr__' of exceptions.SyntaxError object>"
p60
sS'__repr__'
p61
S"<method-wrapper '__repr__' of exceptions.SyntaxError object>"
p62
sS'__hash__'
p63
S"<method-wrapper '__hash__' of exceptions.SyntaxError object>"
p64
ssS'evalue'
p65
S'invalid syntax (highcharts.py, line 40)'
p66
sS'request'
p67
ccopy_reg
_reconstructor
p68
(cgluon.html
BEAUTIFY
p69
c__builtin__
object
p70
NtRp71
(dp72
S'attributes'
p73
(dp74
sS'components'
p75
(lp76
g68
(cgluon.html
TABLE
p77
g70
NtRp78
(dp79
g73
(dp80
S'level'
p81
I5
ssS'parent'
p82
Nsg75
(lp83
g68
(cgluon.html
TR
p84
g70
NtRp85
(dp86
g73
(dp87
sg82
g78
sg75
(lp88
g68
(cgluon.html
TD
p89
g70
NtRp90
(dp91
g73
(dp92
S'_style'
p93
S'font-weight:bold;vertical-align:top'
p94
ssg82
g85
sg75
(lp95
S'ajax'
p96
asbag68
(g89
g70
NtRp97
(dp98
g73
(dp99
S'_valign'
p100
S'top'
p101
ssg82
g85
sg75
(lp102
S':'
asbag68
(g89
g70
NtRp103
(dp104
g73
(dp105
sg82
g85
sg75
(lp106
g68
(g69
g70
NtRp107
(dp108
g73
(dp109
g81
I5
ssg82
g103
sg75
(lp110
S'False'
p111
asbasbasbag68
(g84
g70
NtRp112
(dp113
g73
(dp114
sg82
g78
sg75
(lp115
g68
(g89
g70
NtRp116
(dp117
g73
(dp118
g93
g94
ssg82
g112
sg75
(lp119
S'application'
p120
asbag68
(g89
g70
NtRp121
(dp122
g73
(dp123
g100
g101
ssg82
g112
sg75
(lp124
S':'
asbag68
(g89
g70
NtRp125
(dp126
g73
(dp127
sg82
g112
sg75
(lp128
g68
(g69
g70
NtRp129
(dp130
g73
(dp131
g81
I5
ssg82
g125
sg75
(lp132
S'Graficos'
p133
asbasbasbag68
(g84
g70
NtRp134
(dp135
g73
(dp136
sg82
g78
sg75
(lp137
g68
(g89
g70
NtRp138
(dp139
g73
(dp140
g93
g94
ssg82
g134
sg75
(lp141
g52
asbag68
(g89
g70
NtRp142
(dp143
g73
(dp144
g100
g101
ssg82
g134
sg75
(lp145
S':'
asbag68
(g89
g70
NtRp146
(dp147
g73
(dp148
sg82
g134
sg75
(lp149
g68
(g69
g70
NtRp150
(dp151
g73
(dp152
g81
I5
ssg82
g146
sg75
(lp153
g68
(g77
g70
NtRp154
(dp155
g73
(dp156
g81
I4
ssg82
Nsg75
(lp157
sbasbasbasbag68
(g84
g70
NtRp158
(dp159
g73
(dp160
sg82
g78
sg75
(lp161
g68
(g89
g70
NtRp162
(dp163
g73
(dp164
g93
g94
ssg82
g158
sg75
(lp165
S'body'
p166
asbag68
(g89
g70
NtRp167
(dp168
g73
(dp169
g100
g101
ssg82
g158
sg75
(lp170
S':'
asbag68
(g89
g70
NtRp171
(dp172
g73
(dp173
sg82
g158
sg75
(lp174
g68
(g69
g70
NtRp175
(dp176
g73
(dp177
g81
I5
ssg82
g171
sg75
(lp178
S'<cStringIO.StringO object at 0x06E4CAE0>'
p179
asbasbasbag68
(g84
g70
NtRp180
(dp181
g73
(dp182
sg82
g78
sg75
(lp183
g68
(g89
g70
NtRp184
(dp185
g73
(dp186
g93
g94
ssg82
g180
sg75
(lp187
S'client'
p188
asbag68
(g89
g70
NtRp189
(dp190
g73
(dp191
g100
g101
ssg82
g180
sg75
(lp192
S':'
asbag68
(g89
g70
NtRp193
(dp194
g73
(dp195
sg82
g180
sg75
(lp196
g68
(g69
g70
NtRp197
(dp198
g73
(dp199
g81
I5
ssg82
g193
sg75
(lp200
S'127.0.0.1'
p201
asbasbasbag68
(g84
g70
NtRp202
(dp203
g73
(dp204
sg82
g78
sg75
(lp205
g68
(g89
g70
NtRp206
(dp207
g73
(dp208
g93
g94
ssg82
g202
sg75
(lp209
S'controller'
p210
asbag68
(g89
g70
NtRp211
(dp212
g73
(dp213
g100
g101
ssg82
g202
sg75
(lp214
S':'
asbag68
(g89
g70
NtRp215
(dp216
g73
(dp217
sg82
g202
sg75
(lp218
g68
(g69
g70
NtRp219
(dp220
g73
(dp221
g81
I5
ssg82
g215
sg75
(lp222
S'tela'
p223
asbasbasbag68
(g84
g70
NtRp224
(dp225
g73
(dp226
sg82
g78
sg75
(lp227
g68
(g89
g70
NtRp228
(dp229
g73
(dp230
g93
g94
ssg82
g224
sg75
(lp231
S'cookies'
p232
asbag68
(g89
g70
NtRp233
(dp234
g73
(dp235
g100
g101
ssg82
g224
sg75
(lp236
S':'
asbag68
(g89
g70
NtRp237
(dp238
g73
(dp239
sg82
g224
sg75
(lp240
g68
(g69
g70
NtRp241
(dp242
g73
(dp243
g81
I5
ssg82
g237
sg75
(lp244
g68
(g77
g70
NtRp245
(dp246
g73
(dp247
g81
I4
ssg82
Nsg75
(lp248
g68
(g84
g70
NtRp249
(dp250
g73
(dp251
sg82
g245
sg75
(lp252
g68
(g89
g70
NtRp253
(dp254
g73
(dp255
g93
g94
ssg82
g249
sg75
(lp256
S'session_id_admin'
p257
asbag68
(g89
g70
NtRp258
(dp259
g73
(dp260
g100
g101
ssg82
g249
sg75
(lp261
S':'
asbag68
(g89
g70
NtRp262
(dp263
g73
(dp264
sg82
g249
sg75
(lp265
g68
(g69
g70
NtRp266
(dp267
g73
(dp268
g81
I4
ssg82
g262
sg75
(lp269
g68
(g77
g70
NtRp270
(dp271
g73
(dp272
g81
I3
ssg82
Nsg75
(lp273
g68
(g84
g70
NtRp274
(dp275
g73
(dp276
sg82
g270
sg75
(lp277
g68
(g89
g70
NtRp278
(dp279
g73
(dp280
g93
g94
ssg82
g274
sg75
(lp281
S'comment'
p282
asbag68
(g89
g70
NtRp283
(dp284
g73
(dp285
g100
g101
ssg82
g274
sg75
(lp286
S':'
asbag68
(g89
g70
NtRp287
(dp288
g73
(dp289
sg82
g274
sg75
(lp290
g68
(g69
g70
NtRp291
(dp292
g73
(dp293
g81
I3
ssg82
g287
sg75
(lp294
S''
asbasbasbag68
(g84
g70
NtRp295
(dp296
g73
(dp297
sg82
g270
sg75
(lp298
g68
(g89
g70
NtRp299
(dp300
g73
(dp301
g93
g94
ssg82
g295
sg75
(lp302
S'domain'
p303
asbag68
(g89
g70
NtRp304
(dp305
g73
(dp306
g100
g101
ssg82
g295
sg75
(lp307
S':'
asbag68
(g89
g70
NtRp308
(dp309
g73
(dp310
sg82
g295
sg75
(lp311
g68
(g69
g70
NtRp312
(dp313
g73
(dp314
g81
I3
ssg82
g308
sg75
(lp315
S''
asbasbasbag68
(g84
g70
NtRp316
(dp317
g73
(dp318
sg82
g270
sg75
(lp319
g68
(g89
g70
NtRp320
(dp321
g73
(dp322
g93
g94
ssg82
g316
sg75
(lp323
S'expires'
p324
asbag68
(g89
g70
NtRp325
(dp326
g73
(dp327
g100
g101
ssg82
g316
sg75
(lp328
S':'
asbag68
(g89
g70
NtRp329
(dp330
g73
(dp331
sg82
g316
sg75
(lp332
g68
(g69
g70
NtRp333
(dp334
g73
(dp335
g81
I3
ssg82
g329
sg75
(lp336
S''
asbasbasbag68
(g84
g70
NtRp337
(dp338
g73
(dp339
sg82
g270
sg75
(lp340
g68
(g89
g70
NtRp341
(dp342
g73
(dp343
g93
g94
ssg82
g337
sg75
(lp344
S'httponly'
p345
asbag68
(g89
g70
NtRp346
(dp347
g73
(dp348
g100
g101
ssg82
g337
sg75
(lp349
S':'
asbag68
(g89
g70
NtRp350
(dp351
g73
(dp352
sg82
g337
sg75
(lp353
g68
(g69
g70
NtRp354
(dp355
g73
(dp356
g81
I3
ssg82
g350
sg75
(lp357
S''
asbasbasbag68
(g84
g70
NtRp358
(dp359
g73
(dp360
sg82
g270
sg75
(lp361
g68
(g89
g70
NtRp362
(dp363
g73
(dp364
g93
g94
ssg82
g358
sg75
(lp365
S'max-age'
p366
asbag68
(g89
g70
NtRp367
(dp368
g73
(dp369
g100
g101
ssg82
g358
sg75
(lp370
S':'
asbag68
(g89
g70
NtRp371
(dp372
g73
(dp373
sg82
g358
sg75
(lp374
g68
(g69
g70
NtRp375
(dp376
g73
(dp377
g81
I3
ssg82
g371
sg75
(lp378
S''
asbasbasbag68
(g84
g70
NtRp379
(dp380
g73
(dp381
sg82
g270
sg75
(lp382
g68
(g89
g70
NtRp383
(dp384
g73
(dp385
g93
g94
ssg82
g379
sg75
(lp386
S'path'
p387
asbag68
(g89
g70
NtRp388
(dp389
g73
(dp390
g100
g101
ssg82
g379
sg75
(lp391
S':'
asbag68
(g89
g70
NtRp392
(dp393
g73
(dp394
sg82
g379
sg75
(lp395
g68
(g69
g70
NtRp396
(dp397
g73
(dp398
g81
I3
ssg82
g392
sg75
(lp399
S''
asbasbasbag68
(g84
g70
NtRp400
(dp401
g73
(dp402
sg82
g270
sg75
(lp403
g68
(g89
g70
NtRp404
(dp405
g73
(dp406
g93
g94
ssg82
g400
sg75
(lp407
S'secure'
p408
asbag68
(g89
g70
NtRp409
(dp410
g73
(dp411
g100
g101
ssg82
g400
sg75
(lp412
S':'
asbag68
(g89
g70
NtRp413
(dp414
g73
(dp415
sg82
g400
sg75
(lp416
g68
(g69
g70
NtRp417
(dp418
g73
(dp419
g81
I3
ssg82
g413
sg75
(lp420
S''
asbasbasbag68
(g84
g70
NtRp421
(dp422
g73
(dp423
sg82
g270
sg75
(lp424
g68
(g89
g70
NtRp425
(dp426
g73
(dp427
g93
g94
ssg82
g421
sg75
(lp428
S'version'
p429
asbag68
(g89
g70
NtRp430
(dp431
g73
(dp432
g100
g101
ssg82
g421
sg75
(lp433
S':'
asbag68
(g89
g70
NtRp434
(dp435
g73
(dp436
sg82
g421
sg75
(lp437
g68
(g69
g70
NtRp438
(dp439
g73
(dp440
g81
I3
ssg82
g434
sg75
(lp441
S''
asbasbasbasbasbasbasbag68
(g84
g70
NtRp442
(dp443
g73
(dp444
sg82
g245
sg75
(lp445
g68
(g89
g70
NtRp446
(dp447
g73
(dp448
g93
g94
ssg82
g442
sg75
(lp449
S'session_id_graficos'
p450
asbag68
(g89
g70
NtRp451
(dp452
g73
(dp453
g100
g101
ssg82
g442
sg75
(lp454
S':'
asbag68
(g89
g70
NtRp455
(dp456
g73
(dp457
sg82
g442
sg75
(lp458
g68
(g69
g70
NtRp459
(dp460
g73
(dp461
g81
I4
ssg82
g455
sg75
(lp462
g68
(g77
g70
NtRp463
(dp464
g73
(dp465
g81
I3
ssg82
Nsg75
(lp466
g68
(g84
g70
NtRp467
(dp468
g73
(dp469
sg82
g463
sg75
(lp470
g68
(g89
g70
NtRp471
(dp472
g73
(dp473
g93
g94
ssg82
g467
sg75
(lp474
g282
asbag68
(g89
g70
NtRp475
(dp476
g73
(dp477
g100
g101
ssg82
g467
sg75
(lp478
S':'
asbag68
(g89
g70
NtRp479
(dp480
g73
(dp481
sg82
g467
sg75
(lp482
g68
(g69
g70
NtRp483
(dp484
g73
(dp485
g81
I3
ssg82
g479
sg75
(lp486
S''
asbasbasbag68
(g84
g70
NtRp487
(dp488
g73
(dp489
sg82
g463
sg75
(lp490
g68
(g89
g70
NtRp491
(dp492
g73
(dp493
g93
g94
ssg82
g487
sg75
(lp494
g303
asbag68
(g89
g70
NtRp495
(dp496
g73
(dp497
g100
g101
ssg82
g487
sg75
(lp498
S':'
asbag68
(g89
g70
NtRp499
(dp500
g73
(dp501
sg82
g487
sg75
(lp502
g68
(g69
g70
NtRp503
(dp504
g73
(dp505
g81
I3
ssg82
g499
sg75
(lp506
S''
asbasbasbag68
(g84
g70
NtRp507
(dp508
g73
(dp509
sg82
g463
sg75
(lp510
g68
(g89
g70
NtRp511
(dp512
g73
(dp513
g93
g94
ssg82
g507
sg75
(lp514
g324
asbag68
(g89
g70
NtRp515
(dp516
g73
(dp517
g100
g101
ssg82
g507
sg75
(lp518
S':'
asbag68
(g89
g70
NtRp519
(dp520
g73
(dp521
sg82
g507
sg75
(lp522
g68
(g69
g70
NtRp523
(dp524
g73
(dp525
g81
I3
ssg82
g519
sg75
(lp526
S''
asbasbasbag68
(g84
g70
NtRp527
(dp528
g73
(dp529
sg82
g463
sg75
(lp530
g68
(g89
g70
NtRp531
(dp532
g73
(dp533
g93
g94
ssg82
g527
sg75
(lp534
g345
asbag68
(g89
g70
NtRp535
(dp536
g73
(dp537
g100
g101
ssg82
g527
sg75
(lp538
S':'
asbag68
(g89
g70
NtRp539
(dp540
g73
(dp541
sg82
g527
sg75
(lp542
g68
(g69
g70
NtRp543
(dp544
g73
(dp545
g81
I3
ssg82
g539
sg75
(lp546
S''
asbasbasbag68
(g84
g70
NtRp547
(dp548
g73
(dp549
sg82
g463
sg75
(lp550
g68
(g89
g70
NtRp551
(dp552
g73
(dp553
g93
g94
ssg82
g547
sg75
(lp554
g366
asbag68
(g89
g70
NtRp555
(dp556
g73
(dp557
g100
g101
ssg82
g547
sg75
(lp558
S':'
asbag68
(g89
g70
NtRp559
(dp560
g73
(dp561
sg82
g547
sg75
(lp562
g68
(g69
g70
NtRp563
(dp564
g73
(dp565
g81
I3
ssg82
g559
sg75
(lp566
S''
asbasbasbag68
(g84
g70
NtRp567
(dp568
g73
(dp569
sg82
g463
sg75
(lp570
g68
(g89
g70
NtRp571
(dp572
g73
(dp573
g93
g94
ssg82
g567
sg75
(lp574
g387
asbag68
(g89
g70
NtRp575
(dp576
g73
(dp577
g100
g101
ssg82
g567
sg75
(lp578
S':'
asbag68
(g89
g70
NtRp579
(dp580
g73
(dp581
sg82
g567
sg75
(lp582
g68
(g69
g70
NtRp583
(dp584
g73
(dp585
g81
I3
ssg82
g579
sg75
(lp586
S''
asbasbasbag68
(g84
g70
NtRp587
(dp588
g73
(dp589
sg82
g463
sg75
(lp590
g68
(g89
g70
NtRp591
(dp592
g73
(dp593
g93
g94
ssg82
g587
sg75
(lp594
g408
asbag68
(g89
g70
NtRp595
(dp596
g73
(dp597
g100
g101
ssg82
g587
sg75
(lp598
S':'
asbag68
(g89
g70
NtRp599
(dp600
g73
(dp601
sg82
g587
sg75
(lp602
g68
(g69
g70
NtRp603
(dp604
g73
(dp605
g81
I3
ssg82
g599
sg75
(lp606
S''
asbasbasbag68
(g84
g70
NtRp607
(dp608
g73
(dp609
sg82
g463
sg75
(lp610
g68
(g89
g70
NtRp611
(dp612
g73
(dp613
g93
g94
ssg82
g607
sg75
(lp614
g429
asbag68
(g89
g70
NtRp615
(dp616
g73
(dp617
g100
g101
ssg82
g607
sg75
(lp618
S':'
asbag68
(g89
g70
NtRp619
(dp620
g73
(dp621
sg82
g607
sg75
(lp622
g68
(g69
g70
NtRp623
(dp624
g73
(dp625
g81
I3
ssg82
g619
sg75
(lp626
S''
asbasbasbasbasbasbasbasbasbasbasbag68
(g84
g70
NtRp627
(dp628
g73
(dp629
sg82
g78
sg75
(lp630
g68
(g89
g70
NtRp631
(dp632
g73
(dp633
g93
g94
ssg82
g627
sg75
(lp634
S'env'
p635
asbag68
(g89
g70
NtRp636
(dp637
g73
(dp638
g100
g101
ssg82
g627
sg75
(lp639
S':'
asbag68
(g89
g70
NtRp640
(dp641
g73
(dp642
sg82
g627
sg75
(lp643
g68
(g69
g70
NtRp644
(dp645
g73
(dp646
g81
I5
ssg82
g640
sg75
(lp647
g68
(g77
g70
NtRp648
(dp649
g73
(dp650
g81
I4
ssg82
Nsg75
(lp651
g68
(g84
g70
NtRp652
(dp653
g73
(dp654
sg82
g648
sg75
(lp655
g68
(g89
g70
NtRp656
(dp657
g73
(dp658
g93
g94
ssg82
g652
sg75
(lp659
S'app_folders'
p660
asbag68
(g89
g70
NtRp661
(dp662
g73
(dp663
g100
g101
ssg82
g652
sg75
(lp664
S':'
asbag68
(g89
g70
NtRp665
(dp666
g73
(dp667
sg82
g652
sg75
(lp668
g68
(g69
g70
NtRp669
(dp670
g73
(dp671
g81
I4
ssg82
g665
sg75
(lp672
S"set(['C:\\\\Python27\\\\web2py\\\\applications\\\\admin\\\\', 'C:\\\\Python27\\\\web2py\\\\applications\\\\Graficos\\\\'])"
p673
asbasbasbag68
(g84
g70
NtRp674
(dp675
g73
(dp676
sg82
g648
sg75
(lp677
g68
(g89
g70
NtRp678
(dp679
g73
(dp680
g93
g94
ssg82
g674
sg75
(lp681
S'applications_parent'
p682
asbag68
(g89
g70
NtRp683
(dp684
g73
(dp685
g100
g101
ssg82
g674
sg75
(lp686
S':'
asbag68
(g89
g70
NtRp687
(dp688
g73
(dp689
sg82
g674
sg75
(lp690
g68
(g69
g70
NtRp691
(dp692
g73
(dp693
g81
I4
ssg82
g687
sg75
(lp694
S'C:\\Python27\\web2py'
p695
asbasbasbag68
(g84
g70
NtRp696
(dp697
g73
(dp698
sg82
g648
sg75
(lp699
g68
(g89
g70
NtRp700
(dp701
g73
(dp702
g93
g94
ssg82
g696
sg75
(lp703
S'cmd_args'
p704
asbag68
(g89
g70
NtRp705
(dp706
g73
(dp707
g100
g101
ssg82
g696
sg75
(lp708
S':'
asbag68
(g89
g70
NtRp709
(dp710
g73
(dp711
sg82
g696
sg75
(lp712
g68
(g69
g70
NtRp713
(dp714
g73
(dp715
g81
I4
ssg82
g709
sg75
(lp716
g68
(g77
g70
NtRp717
(dp718
g73
(dp719
g81
I3
ssg82
Nsg75
(lp720
sbasbasbasbag68
(g84
g70
NtRp721
(dp722
g73
(dp723
sg82
g648
sg75
(lp724
g68
(g89
g70
NtRp725
(dp726
g73
(dp727
g93
g94
ssg82
g721
sg75
(lp728
S'cmd_options'
p729
asbag68
(g89
g70
NtRp730
(dp731
g73
(dp732
g100
g101
ssg82
g721
sg75
(lp733
S':'
asbag68
(g89
g70
NtRp734
(dp735
g73
(dp736
sg82
g721
sg75
(lp737
g68
(g69
g70
NtRp738
(dp739
g73
(dp740
g81
I4
ssg82
g734
sg75
(lp741
S"<Values at 0x3a5ee18: {'verbose': False, 'ip': '127.0.0.1', 'shutdown_timeout': 5, 'taskbar': False, 'nocron': False, 'pid_filename': 'httpserver.pid', 'maxthreads': None, 'softcron': False, 'server_name': 'VSWKS071', 'bpython': False, 'nogui': False, 'port': 8000, 'extcron': False, 'debuglevel': 30, 'test': None, 'folder': 'C:\\\\Python27\\\\web2py', 'config': '', 'import_models': False, 'winservice': '', 'shell': None, 'run': '', 'log_filename': 'httpserver.log', 'args': [''], 'socket_timeout': 5, 'ssl_ca_certificate': None, 'scheduler': None, 'profiler_filename': None, 'ssl_private_key': '', 'password': '123', 'request_queue_size': 5, 'ssl_certificate': '', 'cronjob': False, 'numthreads': None, 'quiet': False, 'interfaces': None, 'minthreads': None, 'timeout': 10, 'plain': False, 'nobanner': False}>"
p742
asbasbasbag68
(g84
g70
NtRp743
(dp744
g73
(dp745
sg82
g648
sg75
(lp746
g68
(g89
g70
NtRp747
(dp748
g73
(dp749
g93
g94
ssg82
g743
sg75
(lp750
S'db_sessions'
p751
asbag68
(g89
g70
NtRp752
(dp753
g73
(dp754
g100
g101
ssg82
g743
sg75
(lp755
S':'
asbag68
(g89
g70
NtRp756
(dp757
g73
(dp758
sg82
g743
sg75
(lp759
g68
(g69
g70
NtRp760
(dp761
g73
(dp762
g81
I4
ssg82
g756
sg75
(lp763
S'set([])'
p764
asbasbasbag68
(g84
g70
NtRp765
(dp766
g73
(dp767
sg82
g648
sg75
(lp768
g68
(g89
g70
NtRp769
(dp770
g73
(dp771
g93
g94
ssg82
g765
sg75
(lp772
S'debugging'
p773
asbag68
(g89
g70
NtRp774
(dp775
g73
(dp776
g100
g101
ssg82
g765
sg75
(lp777
S':'
asbag68
(g89
g70
NtRp778
(dp779
g73
(dp780
sg82
g765
sg75
(lp781
g68
(g69
g70
NtRp782
(dp783
g73
(dp784
g81
I4
ssg82
g778
sg75
(lp785
g111
asbasbasbag68
(g84
g70
NtRp786
(dp787
g73
(dp788
sg82
g648
sg75
(lp789
g68
(g89
g70
NtRp790
(dp791
g73
(dp792
g93
g94
ssg82
g786
sg75
(lp793
S'gluon_parent'
p794
asbag68
(g89
g70
NtRp795
(dp796
g73
(dp797
g100
g101
ssg82
g786
sg75
(lp798
S':'
asbag68
(g89
g70
NtRp799
(dp800
g73
(dp801
sg82
g786
sg75
(lp802
g68
(g69
g70
NtRp803
(dp804
g73
(dp805
g81
I4
ssg82
g799
sg75
(lp806
S'C:\\Python27\\web2py'
p807
asbasbasbag68
(g84
g70
NtRp808
(dp809
g73
(dp810
sg82
g648
sg75
(lp811
g68
(g89
g70
NtRp812
(dp813
g73
(dp814
g93
g94
ssg82
g808
sg75
(lp815
S'http_accept'
p816
asbag68
(g89
g70
NtRp817
(dp818
g73
(dp819
g100
g101
ssg82
g808
sg75
(lp820
S':'
asbag68
(g89
g70
NtRp821
(dp822
g73
(dp823
sg82
g808
sg75
(lp824
g68
(g69
g70
NtRp825
(dp826
g73
(dp827
g81
I4
ssg82
g821
sg75
(lp828
S'text/html,application/xhtml+xml,application/xml;q=0.9,*/*;q=0.8'
p829
asbasbasbag68
(g84
g70
NtRp830
(dp831
g73
(dp832
sg82
g648
sg75
(lp833
g68
(g89
g70
NtRp834
(dp835
g73
(dp836
g93
g94
ssg82
g830
sg75
(lp837
S'http_accept_encoding'
p838
asbag68
(g89
g70
NtRp839
(dp840
g73
(dp841
g100
g101
ssg82
g830
sg75
(lp842
S':'
asbag68
(g89
g70
NtRp843
(dp844
g73
(dp845
sg82
g830
sg75
(lp846
g68
(g69
g70
NtRp847
(dp848
g73
(dp849
g81
I4
ssg82
g843
sg75
(lp850
S'gzip, deflate'
p851
asbasbasbag68
(g84
g70
NtRp852
(dp853
g73
(dp854
sg82
g648
sg75
(lp855
g68
(g89
g70
NtRp856
(dp857
g73
(dp858
g93
g94
ssg82
g852
sg75
(lp859
S'http_accept_language'
p860
asbag68
(g89
g70
NtRp861
(dp862
g73
(dp863
g100
g101
ssg82
g852
sg75
(lp864
S':'
asbag68
(g89
g70
NtRp865
(dp866
g73
(dp867
sg82
g852
sg75
(lp868
g68
(g69
g70
NtRp869
(dp870
g73
(dp871
g81
I4
ssg82
g865
sg75
(lp872
S'pt-BR,pt;q=0.8,en-US;q=0.5,en;q=0.3'
p873
asbasbasbag68
(g84
g70
NtRp874
(dp875
g73
(dp876
sg82
g648
sg75
(lp877
g68
(g89
g70
NtRp878
(dp879
g73
(dp880
g93
g94
ssg82
g874
sg75
(lp881
S'http_connection'
p882
asbag68
(g89
g70
NtRp883
(dp884
g73
(dp885
g100
g101
ssg82
g874
sg75
(lp886
S':'
asbag68
(g89
g70
NtRp887
(dp888
g73
(dp889
sg82
g874
sg75
(lp890
g68
(g69
g70
NtRp891
(dp892
g73
(dp893
g81
I4
ssg82
g887
sg75
(lp894
S'keep-alive'
p895
asbasbasbag68
(g84
g70
NtRp896
(dp897
g73
(dp898
sg82
g648
sg75
(lp899
g68
(g89
g70
NtRp900
(dp901
g73
(dp902
g93
g94
ssg82
g896
sg75
(lp903
S'http_cookie'
p904
asbag68
(g89
g70
NtRp905
(dp906
g73
(dp907
g100
g101
ssg82
g896
sg75
(lp908
S':'
asbag68
(g89
g70
NtRp909
(dp910
g73
(dp911
sg82
g896
sg75
(lp912
g68
(g69
g70
NtRp913
(dp914
g73
(dp915
g81
I4
ssg82
g909
sg75
(lp916
S'session_id_graficos=127.0.0.1-a312d193-9992-42d5-8a12-f3001cae6204; session_id_admin=127.0.0.1-34394f47-2318-4bc6-aed1-c40b43b2f3c5'
p917
asbasbasbag68
(g84
g70
NtRp918
(dp919
g73
(dp920
sg82
g648
sg75
(lp921
g68
(g89
g70
NtRp922
(dp923
g73
(dp924
g93
g94
ssg82
g918
sg75
(lp925
S'http_host'
p926
asbag68
(g89
g70
NtRp927
(dp928
g73
(dp929
g100
g101
ssg82
g918
sg75
(lp930
S':'
asbag68
(g89
g70
NtRp931
(dp932
g73
(dp933
sg82
g918
sg75
(lp934
g68
(g69
g70
NtRp935
(dp936
g73
(dp937
g81
I4
ssg82
g931
sg75
(lp938
S'127.0.0.1:8000'
p939
asbasbasbag68
(g84
g70
NtRp940
(dp941
g73
(dp942
sg82
g648
sg75
(lp943
g68
(g89
g70
NtRp944
(dp945
g73
(dp946
g93
g94
ssg82
g940
sg75
(lp947
S'http_user_agent'
p948
asbag68
(g89
g70
NtRp949
(dp950
g73
(dp951
g100
g101
ssg82
g940
sg75
(lp952
S':'
asbag68
(g89
g70
NtRp953
(dp954
g73
(dp955
sg82
g940
sg75
(lp956
g68
(g69
g70
NtRp957
(dp958
g73
(dp959
g81
I4
ssg82
g953
sg75
(lp960
S'Mozilla/5.0 (Windows NT 6.1; WOW64; rv:18.0) Gecko/20100101 Firefox/18.0'
p961
asbasbasbag68
(g84
g70
NtRp962
(dp963
g73
(dp964
sg82
g648
sg75
(lp965
g68
(g89
g70
NtRp966
(dp967
g73
(dp968
g93
g94
ssg82
g962
sg75
(lp969
S'is_jython'
p970
asbag68
(g89
g70
NtRp971
(dp972
g73
(dp973
g100
g101
ssg82
g962
sg75
(lp974
S':'
asbag68
(g89
g70
NtRp975
(dp976
g73
(dp977
sg82
g962
sg75
(lp978
g68
(g69
g70
NtRp979
(dp980
g73
(dp981
g81
I4
ssg82
g975
sg75
(lp982
g111
asbasbasbag68
(g84
g70
NtRp983
(dp984
g73
(dp985
sg82
g648
sg75
(lp986
g68
(g89
g70
NtRp987
(dp988
g73
(dp989
g93
g94
ssg82
g983
sg75
(lp990
S'is_pypy'
p991
asbag68
(g89
g70
NtRp992
(dp993
g73
(dp994
g100
g101
ssg82
g983
sg75
(lp995
S':'
asbag68
(g89
g70
NtRp996
(dp997
g73
(dp998
sg82
g983
sg75
(lp999
g68
(g69
g70
NtRp1000
(dp1001
g73
(dp1002
g81
I4
ssg82
g996
sg75
(lp1003
g111
asbasbasbag68
(g84
g70
NtRp1004
(dp1005
g73
(dp1006
sg82
g648
sg75
(lp1007
g68
(g89
g70
NtRp1008
(dp1009
g73
(dp1010
g93
g94
ssg82
g1004
sg75
(lp1011
S'path_info'
p1012
asbag68
(g89
g70
NtRp1013
(dp1014
g73
(dp1015
g100
g101
ssg82
g1004
sg75
(lp1016
S':'
asbag68
(g89
g70
NtRp1017
(dp1018
g73
(dp1019
sg82
g1004
sg75
(lp1020
g68
(g69
g70
NtRp1021
(dp1022
g73
(dp1023
g81
I4
ssg82
g1017
sg75
(lp1024
S'/Graficos/tela'
p1025
asbasbasbag68
(g84
g70
NtRp1026
(dp1027
g73
(dp1028
sg82
g648
sg75
(lp1029
g68
(g89
g70
NtRp1030
(dp1031
g73
(dp1032
g93
g94
ssg82
g1026
sg75
(lp1033
S'query_string'
p1034
asbag68
(g89
g70
NtRp1035
(dp1036
g73
(dp1037
g100
g101
ssg82
g1026
sg75
(lp1038
S':'
asbag68
(g89
g70
NtRp1039
(dp1040
g73
(dp1041
sg82
g1026
sg75
(lp1042
g68
(g69
g70
NtRp1043
(dp1044
g73
(dp1045
g81
I4
ssg82
g1039
sg75
(lp1046
S''
asbasbasbag68
(g84
g70
NtRp1047
(dp1048
g73
(dp1049
sg82
g648
sg75
(lp1050
g68
(g89
g70
NtRp1051
(dp1052
g73
(dp1053
g93
g94
ssg82
g1047
sg75
(lp1054
S'remote_addr'
p1055
asbag68
(g89
g70
NtRp1056
(dp1057
g73
(dp1058
g100
g101
ssg82
g1047
sg75
(lp1059
S':'
asbag68
(g89
g70
NtRp1060
(dp1061
g73
(dp1062
sg82
g1047
sg75
(lp1063
g68
(g69
g70
NtRp1064
(dp1065
g73
(dp1066
g81
I4
ssg82
g1060
sg75
(lp1067
g201
asbasbasbag68
(g84
g70
NtRp1068
(dp1069
g73
(dp1070
sg82
g648
sg75
(lp1071
g68
(g89
g70
NtRp1072
(dp1073
g73
(dp1074
g93
g94
ssg82
g1068
sg75
(lp1075
S'remote_port'
p1076
asbag68
(g89
g70
NtRp1077
(dp1078
g73
(dp1079
g100
g101
ssg82
g1068
sg75
(lp1080
S':'
asbag68
(g89
g70
NtRp1081
(dp1082
g73
(dp1083
sg82
g1068
sg75
(lp1084
g68
(g69
g70
NtRp1085
(dp1086
g73
(dp1087
g81
I4
ssg82
g1081
sg75
(lp1088
S'53938'
p1089
asbasbasbag68
(g84
g70
NtRp1090
(dp1091
g73
(dp1092
sg82
g648
sg75
(lp1093
g68
(g89
g70
NtRp1094
(dp1095
g73
(dp1096
g93
g94
ssg82
g1090
sg75
(lp1097
S'request_method'
p1098
asbag68
(g89
g70
NtRp1099
(dp1100
g73
(dp1101
g100
g101
ssg82
g1090
sg75
(lp1102
S':'
asbag68
(g89
g70
NtRp1103
(dp1104
g73
(dp1105
sg82
g1090
sg75
(lp1106
g68
(g69
g70
NtRp1107
(dp1108
g73
(dp1109
g81
I4
ssg82
g1103
sg75
(lp1110
S'GET'
p1111
asbasbasbag68
(g84
g70
NtRp1112
(dp1113
g73
(dp1114
sg82
g648
sg75
(lp1115
g68
(g89
g70
NtRp1116
(dp1117
g73
(dp1118
g93
g94
ssg82
g1112
sg75
(lp1119
S'request_uri'
p1120
asbag68
(g89
g70
NtRp1121
(dp1122
g73
(dp1123
g100
g101
ssg82
g1112
sg75
(lp1124
S':'
asbag68
(g89
g70
NtRp1125
(dp1126
g73
(dp1127
sg82
g1112
sg75
(lp1128
g68
(g69
g70
NtRp1129
(dp1130
g73
(dp1131
g81
I4
ssg82
g1125
sg75
(lp1132
g1025
asbasbasbag68
(g84
g70
NtRp1133
(dp1134
g73
(dp1135
sg82
g648
sg75
(lp1136
g68
(g89
g70
NtRp1137
(dp1138
g73
(dp1139
g93
g94
ssg82
g1133
sg75
(lp1140
S'script_name'
p1141
asbag68
(g89
g70
NtRp1142
(dp1143
g73
(dp1144
g100
g101
ssg82
g1133
sg75
(lp1145
S':'
asbag68
(g89
g70
NtRp1146
(dp1147
g73
(dp1148
sg82
g1133
sg75
(lp1149
g68
(g69
g70
NtRp1150
(dp1151
g73
(dp1152
g81
I4
ssg82
g1146
sg75
(lp1153
S''
asbasbasbag68
(g84
g70
NtRp1154
(dp1155
g73
(dp1156
sg82
g648
sg75
(lp1157
g68
(g89
g70
NtRp1158
(dp1159
g73
(dp1160
g93
g94
ssg82
g1154
sg75
(lp1161
S'server_name'
p1162
asbag68
(g89
g70
NtRp1163
(dp1164
g73
(dp1165
g100
g101
ssg82
g1154
sg75
(lp1166
S':'
asbag68
(g89
g70
NtRp1167
(dp1168
g73
(dp1169
sg82
g1154
sg75
(lp1170
g68
(g69
g70
NtRp1171
(dp1172
g73
(dp1173
g81
I4
ssg82
g1167
sg75
(lp1174
S'VSWKS071'
p1175
asbasbasbag68
(g84
g70
NtRp1176
(dp1177
g73
(dp1178
sg82
g648
sg75
(lp1179
g68
(g89
g70
NtRp1180
(dp1181
g73
(dp1182
g93
g94
ssg82
g1176
sg75
(lp1183
S'server_port'
p1184
asbag68
(g89
g70
NtRp1185
(dp1186
g73
(dp1187
g100
g101
ssg82
g1176
sg75
(lp1188
S':'
asbag68
(g89
g70
NtRp1189
(dp1190
g73
(dp1191
sg82
g1176
sg75
(lp1192
g68
(g69
g70
NtRp1193
(dp1194
g73
(dp1195
g81
I4
ssg82
g1189
sg75
(lp1196
S'8000'
p1197
asbasbasbag68
(g84
g70
NtRp1198
(dp1199
g73
(dp1200
sg82
g648
sg75
(lp1201
g68
(g89
g70
NtRp1202
(dp1203
g73
(dp1204
g93
g94
ssg82
g1198
sg75
(lp1205
S'server_protocol'
p1206
asbag68
(g89
g70
NtRp1207
(dp1208
g73
(dp1209
g100
g101
ssg82
g1198
sg75
(lp1210
S':'
asbag68
(g89
g70
NtRp1211
(dp1212
g73
(dp1213
sg82
g1198
sg75
(lp1214
g68
(g69
g70
NtRp1215
(dp1216
g73
(dp1217
g81
I4
ssg82
g1211
sg75
(lp1218
S'HTTP/1.1'
p1219
asbasbasbag68
(g84
g70
NtRp1220
(dp1221
g73
(dp1222
sg82
g648
sg75
(lp1223
g68
(g89
g70
NtRp1224
(dp1225
g73
(dp1226
g93
g94
ssg82
g1220
sg75
(lp1227
S'server_software'
p1228
asbag68
(g89
g70
NtRp1229
(dp1230
g73
(dp1231
g100
g101
ssg82
g1220
sg75
(lp1232
S':'
asbag68
(g89
g70
NtRp1233
(dp1234
g73
(dp1235
sg82
g1220
sg75
(lp1236
g68
(g69
g70
NtRp1237
(dp1238
g73
(dp1239
g81
I4
ssg82
g1233
sg75
(lp1240
S'Rocket 1.2.4'
p1241
asbasbasbag68
(g84
g70
NtRp1242
(dp1243
g73
(dp1244
sg82
g648
sg75
(lp1245
g68
(g89
g70
NtRp1246
(dp1247
g73
(dp1248
g93
g94
ssg82
g1242
sg75
(lp1249
S'web2py_crontype'
p1250
asbag68
(g89
g70
NtRp1251
(dp1252
g73
(dp1253
g100
g101
ssg82
g1242
sg75
(lp1254
S':'
asbag68
(g89
g70
NtRp1255
(dp1256
g73
(dp1257
sg82
g1242
sg75
(lp1258
g68
(g69
g70
NtRp1259
(dp1260
g73
(dp1261
g81
I4
ssg82
g1255
sg75
(lp1262
S'hard'
p1263
asbasbasbag68
(g84
g70
NtRp1264
(dp1265
g73
(dp1266
sg82
g648
sg75
(lp1267
g68
(g89
g70
NtRp1268
(dp1269
g73
(dp1270
g93
g94
ssg82
g1264
sg75
(lp1271
S'web2py_original_uri'
p1272
asbag68
(g89
g70
NtRp1273
(dp1274
g73
(dp1275
g100
g101
ssg82
g1264
sg75
(lp1276
S':'
asbag68
(g89
g70
NtRp1277
(dp1278
g73
(dp1279
sg82
g1264
sg75
(lp1280
g68
(g69
g70
NtRp1281
(dp1282
g73
(dp1283
g81
I4
ssg82
g1277
sg75
(lp1284
g1025
asbasbasbag68
(g84
g70
NtRp1285
(dp1286
g73
(dp1287
sg82
g648
sg75
(lp1288
g68
(g89
g70
NtRp1289
(dp1290
g73
(dp1291
g93
g94
ssg82
g1285
sg75
(lp1292
S'web2py_path'
p1293
asbag68
(g89
g70
NtRp1294
(dp1295
g73
(dp1296
g100
g101
ssg82
g1285
sg75
(lp1297
S':'
asbag68
(g89
g70
NtRp1298
(dp1299
g73
(dp1300
sg82
g1285
sg75
(lp1301
g68
(g69
g70
NtRp1302
(dp1303
g73
(dp1304
g81
I4
ssg82
g1298
sg75
(lp1305
g695
asbasbasbag68
(g84
g70
NtRp1306
(dp1307
g73
(dp1308
sg82
g648
sg75
(lp1309
g68
(g89
g70
NtRp1310
(dp1311
g73
(dp1312
g93
g94
ssg82
g1306
sg75
(lp1313
S'web2py_version'
p1314
asbag68
(g89
g70
NtRp1315
(dp1316
g73
(dp1317
g100
g101
ssg82
g1306
sg75
(lp1318
S':'
asbag68
(g89
g70
NtRp1319
(dp1320
g73
(dp1321
sg82
g1306
sg75
(lp1322
g68
(g69
g70
NtRp1323
(dp1324
g73
(dp1325
g81
I4
ssg82
g1319
sg75
(lp1326
g68
(g77
g70
NtRp1327
(dp1328
g73
(dp1329
g81
I3
ssg82
Nsg75
(lp1330
g68
(g84
g70
NtRp1331
(dp1332
g73
(dp1333
sg82
g1327
sg75
(lp1334
g68
(g89
g70
NtRp1335
(dp1336
g73
(dp1337
sg82
g1331
sg75
(lp1338
g68
(g69
g70
NtRp1339
(dp1340
g73
(dp1341
g81
I3
ssg82
g1335
sg75
(lp1342
S'1'
asbasbasbag68
(g84
g70
NtRp1343
(dp1344
g73
(dp1345
sg82
g1327
sg75
(lp1346
g68
(g89
g70
NtRp1347
(dp1348
g73
(dp1349
sg82
g1343
sg75
(lp1350
g68
(g69
g70
NtRp1351
(dp1352
g73
(dp1353
g81
I3
ssg82
g1347
sg75
(lp1354
S'99'
p1355
asbasbasbag68
(g84
g70
NtRp1356
(dp1357
g73
(dp1358
sg82
g1327
sg75
(lp1359
g68
(g89
g70
NtRp1360
(dp1361
g73
(dp1362
sg82
g1356
sg75
(lp1363
g68
(g69
g70
NtRp1364
(dp1365
g73
(dp1366
g81
I3
ssg82
g1360
sg75
(lp1367
S'7'
asbasbasbag68
(g84
g70
NtRp1368
(dp1369
g73
(dp1370
sg82
g1327
sg75
(lp1371
g68
(g89
g70
NtRp1372
(dp1373
g73
(dp1374
sg82
g1368
sg75
(lp1375
g68
(g69
g70
NtRp1376
(dp1377
g73
(dp1378
g81
I3
ssg82
g1372
sg75
(lp1379
S'datetime.datetime(2012, 3, 4, 22, 12, 8)'
p1380
asbasbasbag68
(g84
g70
NtRp1381
(dp1382
g73
(dp1383
sg82
g1327
sg75
(lp1384
g68
(g89
g70
NtRp1385
(dp1386
g73
(dp1387
sg82
g1381
sg75
(lp1388
g68
(g69
g70
NtRp1389
(dp1390
g73
(dp1391
g81
I3
ssg82
g1385
sg75
(lp1392
S'stable'
p1393
asbasbasbasbasbasbasbag68
(g84
g70
NtRp1394
(dp1395
g73
(dp1396
sg82
g648
sg75
(lp1397
g68
(g89
g70
NtRp1398
(dp1399
g73
(dp1400
g93
g94
ssg82
g1394
sg75
(lp1401
S'wsgi_errors'
p1402
asbag68
(g89
g70
NtRp1403
(dp1404
g73
(dp1405
g100
g101
ssg82
g1394
sg75
(lp1406
S':'
asbag68
(g89
g70
NtRp1407
(dp1408
g73
(dp1409
sg82
g1394
sg75
(lp1410
g68
(g69
g70
NtRp1411
(dp1412
g73
(dp1413
g81
I4
ssg82
g1407
sg75
(lp1414
S"<open file '<stderr>', mode 'w' at 0x01E450D0>"
p1415
asbasbasbag68
(g84
g70
NtRp1416
(dp1417
g73
(dp1418
sg82
g648
sg75
(lp1419
g68
(g89
g70
NtRp1420
(dp1421
g73
(dp1422
g93
g94
ssg82
g1416
sg75
(lp1423
S'wsgi_file_wrapper'
p1424
asbag68
(g89
g70
NtRp1425
(dp1426
g73
(dp1427
g100
g101
ssg82
g1416
sg75
(lp1428
S':'
asbag68
(g89
g70
NtRp1429
(dp1430
g73
(dp1431
sg82
g1416
sg75
(lp1432
g68
(g69
g70
NtRp1433
(dp1434
g73
(dp1435
g81
I4
ssg82
g1429
sg75
(lp1436
S'<class wsgiref.util.FileWrapper at 0x03972768>'
p1437
asbasbasbag68
(g84
g70
NtRp1438
(dp1439
g73
(dp1440
sg82
g648
sg75
(lp1441
g68
(g89
g70
NtRp1442
(dp1443
g73
(dp1444
g93
g94
ssg82
g1438
sg75
(lp1445
S'wsgi_input'
p1446
asbag68
(g89
g70
NtRp1447
(dp1448
g73
(dp1449
g100
g101
ssg82
g1438
sg75
(lp1450
S':'
asbag68
(g89
g70
NtRp1451
(dp1452
g73
(dp1453
sg82
g1438
sg75
(lp1454
g68
(g69
g70
NtRp1455
(dp1456
g73
(dp1457
g81
I4
ssg82
g1451
sg75
(lp1458
S'<socket._fileobject object at 0x03E12170>'
p1459
asbasbasbag68
(g84
g70
NtRp1460
(dp1461
g73
(dp1462
sg82
g648
sg75
(lp1463
g68
(g89
g70
NtRp1464
(dp1465
g73
(dp1466
g93
g94
ssg82
g1460
sg75
(lp1467
S'wsgi_multiprocess'
p1468
asbag68
(g89
g70
NtRp1469
(dp1470
g73
(dp1471
g100
g101
ssg82
g1460
sg75
(lp1472
S':'
asbag68
(g89
g70
NtRp1473
(dp1474
g73
(dp1475
sg82
g1460
sg75
(lp1476
g68
(g69
g70
NtRp1477
(dp1478
g73
(dp1479
g81
I4
ssg82
g1473
sg75
(lp1480
g111
asbasbasbag68
(g84
g70
NtRp1481
(dp1482
g73
(dp1483
sg82
g648
sg75
(lp1484
g68
(g89
g70
NtRp1485
(dp1486
g73
(dp1487
g93
g94
ssg82
g1481
sg75
(lp1488
S'wsgi_multithread'
p1489
asbag68
(g89
g70
NtRp1490
(dp1491
g73
(dp1492
g100
g101
ssg82
g1481
sg75
(lp1493
S':'
asbag68
(g89
g70
NtRp1494
(dp1495
g73
(dp1496
sg82
g1481
sg75
(lp1497
g68
(g69
g70
NtRp1498
(dp1499
g73
(dp1500
g81
I4
ssg82
g1494
sg75
(lp1501
S'True'
p1502
asbasbasbag68
(g84
g70
NtRp1503
(dp1504
g73
(dp1505
sg82
g648
sg75
(lp1506
g68
(g89
g70
NtRp1507
(dp1508
g73
(dp1509
g93
g94
ssg82
g1503
sg75
(lp1510
S'wsgi_run_once'
p1511
asbag68
(g89
g70
NtRp1512
(dp1513
g73
(dp1514
g100
g101
ssg82
g1503
sg75
(lp1515
S':'
asbag68
(g89
g70
NtRp1516
(dp1517
g73
(dp1518
sg82
g1503
sg75
(lp1519
g68
(g69
g70
NtRp1520
(dp1521
g73
(dp1522
g81
I4
ssg82
g1516
sg75
(lp1523
g111
asbasbasbag68
(g84
g70
NtRp1524
(dp1525
g73
(dp1526
sg82
g648
sg75
(lp1527
g68
(g89
g70
NtRp1528
(dp1529
g73
(dp1530
g93
g94
ssg82
g1524
sg75
(lp1531
S'wsgi_url_scheme'
p1532
asbag68
(g89
g70
NtRp1533
(dp1534
g73
(dp1535
g100
g101
ssg82
g1524
sg75
(lp1536
S':'
asbag68
(g89
g70
NtRp1537
(dp1538
g73
(dp1539
sg82
g1524
sg75
(lp1540
g68
(g69
g70
NtRp1541
(dp1542
g73
(dp1543
g81
I4
ssg82
g1537
sg75
(lp1544
S'http'
p1545
asbasbasbag68
(g84
g70
NtRp1546
(dp1547
g73
(dp1548
sg82
g648
sg75
(lp1549
g68
(g89
g70
NtRp1550
(dp1551
g73
(dp1552
g93
g94
ssg82
g1546
sg75
(lp1553
S'wsgi_version'
p1554
asbag68
(g89
g70
NtRp1555
(dp1556
g73
(dp1557
g100
g101
ssg82
g1546
sg75
(lp1558
S':'
asbag68
(g89
g70
NtRp1559
(dp1560
g73
(dp1561
sg82
g1546
sg75
(lp1562
g68
(g69
g70
NtRp1563
(dp1564
g73
(dp1565
g81
I4
ssg82
g1559
sg75
(lp1566
g68
(g77
g70
NtRp1567
(dp1568
g73
(dp1569
g81
I3
ssg82
Nsg75
(lp1570
g68
(g84
g70
NtRp1571
(dp1572
g73
(dp1573
sg82
g1567
sg75
(lp1574
g68
(g89
g70
NtRp1575
(dp1576
g73
(dp1577
sg82
g1571
sg75
(lp1578
g68
(g69
g70
NtRp1579
(dp1580
g73
(dp1581
g81
I3
ssg82
g1575
sg75
(lp1582
S'1'
asbasbasbag68
(g84
g70
NtRp1583
(dp1584
g73
(dp1585
sg82
g1567
sg75
(lp1586
g68
(g89
g70
NtRp1587
(dp1588
g73
(dp1589
sg82
g1583
sg75
(lp1590
g68
(g69
g70
NtRp1591
(dp1592
g73
(dp1593
g81
I3
ssg82
g1587
sg75
(lp1594
S'0'
asbasbasbasbasbasbasbasbasbasbasbag68
(g84
g70
NtRp1595
(dp1596
g73
(dp1597
sg82
g78
sg75
(lp1598
g68
(g89
g70
NtRp1599
(dp1600
g73
(dp1601
g93
g94
ssg82
g1595
sg75
(lp1602
S'extension'
p1603
asbag68
(g89
g70
NtRp1604
(dp1605
g73
(dp1606
g100
g101
ssg82
g1595
sg75
(lp1607
S':'
asbag68
(g89
g70
NtRp1608
(dp1609
g73
(dp1610
sg82
g1595
sg75
(lp1611
g68
(g69
g70
NtRp1612
(dp1613
g73
(dp1614
g81
I5
ssg82
g1608
sg75
(lp1615
S'html'
p1616
asbasbasbag68
(g84
g70
NtRp1617
(dp1618
g73
(dp1619
sg82
g78
sg75
(lp1620
g68
(g89
g70
NtRp1621
(dp1622
g73
(dp1623
g93
g94
ssg82
g1617
sg75
(lp1624
S'folder'
p1625
asbag68
(g89
g70
NtRp1626
(dp1627
g73
(dp1628
g100
g101
ssg82
g1617
sg75
(lp1629
S':'
asbag68
(g89
g70
NtRp1630
(dp1631
g73
(dp1632
sg82
g1617
sg75
(lp1633
g68
(g69
g70
NtRp1634
(dp1635
g73
(dp1636
g81
I5
ssg82
g1630
sg75
(lp1637
S'C:\\Python27\\web2py\\applications\\Graficos\\'
p1638
asbasbasbag68
(g84
g70
NtRp1639
(dp1640
g73
(dp1641
sg82
g78
sg75
(lp1642
g68
(g89
g70
NtRp1643
(dp1644
g73
(dp1645
g93
g94
ssg82
g1639
sg75
(lp1646
S'function'
p1647
asbag68
(g89
g70
NtRp1648
(dp1649
g73
(dp1650
g100
g101
ssg82
g1639
sg75
(lp1651
S':'
asbag68
(g89
g70
NtRp1652
(dp1653
g73
(dp1654
sg82
g1639
sg75
(lp1655
g68
(g69
g70
NtRp1656
(dp1657
g73
(dp1658
g81
I5
ssg82
g1652
sg75
(lp1659
S'index'
p1660
asbasbasbag68
(g84
g70
NtRp1661
(dp1662
g73
(dp1663
sg82
g78
sg75
(lp1664
g68
(g89
g70
NtRp1665
(dp1666
g73
(dp1667
g93
g94
ssg82
g1661
sg75
(lp1668
S'get_vars'
p1669
asbag68
(g89
g70
NtRp1670
(dp1671
g73
(dp1672
g100
g101
ssg82
g1661
sg75
(lp1673
S':'
asbag68
(g89
g70
NtRp1674
(dp1675
g73
(dp1676
sg82
g1661
sg75
(lp1677
g68
(g69
g70
NtRp1678
(dp1679
g73
(dp1680
g81
I5
ssg82
g1674
sg75
(lp1681
g68
(g77
g70
NtRp1682
(dp1683
g73
(dp1684
g81
I4
ssg82
Nsg75
(lp1685
sbasbasbasbag68
(g84
g70
NtRp1686
(dp1687
g73
(dp1688
sg82
g78
sg75
(lp1689
g68
(g89
g70
NtRp1690
(dp1691
g73
(dp1692
g93
g94
ssg82
g1686
sg75
(lp1693
S'global_settings'
p1694
asbag68
(g89
g70
NtRp1695
(dp1696
g73
(dp1697
g100
g101
ssg82
g1686
sg75
(lp1698
S':'
asbag68
(g89
g70
NtRp1699
(dp1700
g73
(dp1701
sg82
g1686
sg75
(lp1702
g68
(g69
g70
NtRp1703
(dp1704
g73
(dp1705
g81
I5
ssg82
g1699
sg75
(lp1706
g68
(g77
g70
NtRp1707
(dp1708
g73
(dp1709
g81
I4
ssg82
Nsg75
(lp1710
g68
(g84
g70
NtRp1711
(dp1712
g73
(dp1713
sg82
g1707
sg75
(lp1714
g68
(g89
g70
NtRp1715
(dp1716
g73
(dp1717
g93
g94
ssg82
g1711
sg75
(lp1718
g660
asbag68
(g89
g70
NtRp1719
(dp1720
g73
(dp1721
g100
g101
ssg82
g1711
sg75
(lp1722
S':'
asbag68
(g89
g70
NtRp1723
(dp1724
g73
(dp1725
sg82
g1711
sg75
(lp1726
g68
(g69
g70
NtRp1727
(dp1728
g73
(dp1729
g81
I4
ssg82
g1723
sg75
(lp1730
S"set(['C:\\\\Python27\\\\web2py\\\\applications\\\\admin\\\\', 'C:\\\\Python27\\\\web2py\\\\applications\\\\Graficos\\\\'])"
p1731
asbasbasbag68
(g84
g70
NtRp1732
(dp1733
g73
(dp1734
sg82
g1707
sg75
(lp1735
g68
(g89
g70
NtRp1736
(dp1737
g73
(dp1738
g93
g94
ssg82
g1732
sg75
(lp1739
g682
asbag68
(g89
g70
NtRp1740
(dp1741
g73
(dp1742
g100
g101
ssg82
g1732
sg75
(lp1743
S':'
asbag68
(g89
g70
NtRp1744
(dp1745
g73
(dp1746
sg82
g1732
sg75
(lp1747
g68
(g69
g70
NtRp1748
(dp1749
g73
(dp1750
g81
I4
ssg82
g1744
sg75
(lp1751
g695
asbasbasbag68
(g84
g70
NtRp1752
(dp1753
g73
(dp1754
sg82
g1707
sg75
(lp1755
g68
(g89
g70
NtRp1756
(dp1757
g73
(dp1758
g93
g94
ssg82
g1752
sg75
(lp1759
g704
asbag68
(g89
g70
NtRp1760
(dp1761
g73
(dp1762
g100
g101
ssg82
g1752
sg75
(lp1763
S':'
asbag68
(g89
g70
NtRp1764
(dp1765
g73
(dp1766
sg82
g1752
sg75
(lp1767
g68
(g69
g70
NtRp1768
(dp1769
g73
(dp1770
g81
I4
ssg82
g1764
sg75
(lp1771
g68
(g77
g70
NtRp1772
(dp1773
g73
(dp1774
g81
I3
ssg82
Nsg75
(lp1775
sbasbasbasbag68
(g84
g70
NtRp1776
(dp1777
g73
(dp1778
sg82
g1707
sg75
(lp1779
g68
(g89
g70
NtRp1780
(dp1781
g73
(dp1782
g93
g94
ssg82
g1776
sg75
(lp1783
g729
asbag68
(g89
g70
NtRp1784
(dp1785
g73
(dp1786
g100
g101
ssg82
g1776
sg75
(lp1787
S':'
asbag68
(g89
g70
NtRp1788
(dp1789
g73
(dp1790
sg82
g1776
sg75
(lp1791
g68
(g69
g70
NtRp1792
(dp1793
g73
(dp1794
g81
I4
ssg82
g1788
sg75
(lp1795
S"<Values at 0x3a5ee18: {'verbose': False, 'ip': '127.0.0.1', 'shutdown_timeout': 5, 'taskbar': False, 'nocron': False, 'pid_filename': 'httpserver.pid', 'maxthreads': None, 'softcron': False, 'server_name': 'VSWKS071', 'bpython': False, 'nogui': False, 'port': 8000, 'extcron': False, 'debuglevel': 30, 'test': None, 'folder': 'C:\\\\Python27\\\\web2py', 'config': '', 'import_models': False, 'winservice': '', 'shell': None, 'run': '', 'log_filename': 'httpserver.log', 'args': [''], 'socket_timeout': 5, 'ssl_ca_certificate': None, 'scheduler': None, 'profiler_filename': None, 'ssl_private_key': '', 'password': '123', 'request_queue_size': 5, 'ssl_certificate': '', 'cronjob': False, 'numthreads': None, 'quiet': False, 'interfaces': None, 'minthreads': None, 'timeout': 10, 'plain': False, 'nobanner': False}>"
p1796
asbasbasbag68
(g84
g70
NtRp1797
(dp1798
g73
(dp1799
sg82
g1707
sg75
(lp1800
g68
(g89
g70
NtRp1801
(dp1802
g73
(dp1803
g93
g94
ssg82
g1797
sg75
(lp1804
g751
asbag68
(g89
g70
NtRp1805
(dp1806
g73
(dp1807
g100
g101
ssg82
g1797
sg75
(lp1808
S':'
asbag68
(g89
g70
NtRp1809
(dp1810
g73
(dp1811
sg82
g1797
sg75
(lp1812
g68
(g69
g70
NtRp1813
(dp1814
g73
(dp1815
g81
I4
ssg82
g1809
sg75
(lp1816
S'set([])'
p1817
asbasbasbag68
(g84
g70
NtRp1818
(dp1819
g73
(dp1820
sg82
g1707
sg75
(lp1821
g68
(g89
g70
NtRp1822
(dp1823
g73
(dp1824
g93
g94
ssg82
g1818
sg75
(lp1825
g773
asbag68
(g89
g70
NtRp1826
(dp1827
g73
(dp1828
g100
g101
ssg82
g1818
sg75
(lp1829
S':'
asbag68
(g89
g70
NtRp1830
(dp1831
g73
(dp1832
sg82
g1818
sg75
(lp1833
g68
(g69
g70
NtRp1834
(dp1835
g73
(dp1836
g81
I4
ssg82
g1830
sg75
(lp1837
g111
asbasbasbag68
(g84
g70
NtRp1838
(dp1839
g73
(dp1840
sg82
g1707
sg75
(lp1841
g68
(g89
g70
NtRp1842
(dp1843
g73
(dp1844
g93
g94
ssg82
g1838
sg75
(lp1845
g794
asbag68
(g89
g70
NtRp1846
(dp1847
g73
(dp1848
g100
g101
ssg82
g1838
sg75
(lp1849
S':'
asbag68
(g89
g70
NtRp1850
(dp1851
g73
(dp1852
sg82
g1838
sg75
(lp1853
g68
(g69
g70
NtRp1854
(dp1855
g73
(dp1856
g81
I4
ssg82
g1850
sg75
(lp1857
g807
asbasbasbag68
(g84
g70
NtRp1858
(dp1859
g73
(dp1860
sg82
g1707
sg75
(lp1861
g68
(g89
g70
NtRp1862
(dp1863
g73
(dp1864
g93
g94
ssg82
g1858
sg75
(lp1865
g970
asbag68
(g89
g70
NtRp1866
(dp1867
g73
(dp1868
g100
g101
ssg82
g1858
sg75
(lp1869
S':'
asbag68
(g89
g70
NtRp1870
(dp1871
g73
(dp1872
sg82
g1858
sg75
(lp1873
g68
(g69
g70
NtRp1874
(dp1875
g73
(dp1876
g81
I4
ssg82
g1870
sg75
(lp1877
g111
asbasbasbag68
(g84
g70
NtRp1878
(dp1879
g73
(dp1880
sg82
g1707
sg75
(lp1881
g68
(g89
g70
NtRp1882
(dp1883
g73
(dp1884
g93
g94
ssg82
g1878
sg75
(lp1885
g991
asbag68
(g89
g70
NtRp1886
(dp1887
g73
(dp1888
g100
g101
ssg82
g1878
sg75
(lp1889
S':'
asbag68
(g89
g70
NtRp1890
(dp1891
g73
(dp1892
sg82
g1878
sg75
(lp1893
g68
(g69
g70
NtRp1894
(dp1895
g73
(dp1896
g81
I4
ssg82
g1890
sg75
(lp1897
g111
asbasbasbag68
(g84
g70
NtRp1898
(dp1899
g73
(dp1900
sg82
g1707
sg75
(lp1901
g68
(g89
g70
NtRp1902
(dp1903
g73
(dp1904
g93
g94
ssg82
g1898
sg75
(lp1905
g1250
asbag68
(g89
g70
NtRp1906
(dp1907
g73
(dp1908
g100
g101
ssg82
g1898
sg75
(lp1909
S':'
asbag68
(g89
g70
NtRp1910
(dp1911
g73
(dp1912
sg82
g1898
sg75
(lp1913
g68
(g69
g70
NtRp1914
(dp1915
g73
(dp1916
g81
I4
ssg82
g1910
sg75
(lp1917
g1263
asbasbasbag68
(g84
g70
NtRp1918
(dp1919
g73
(dp1920
sg82
g1707
sg75
(lp1921
g68
(g89
g70
NtRp1922
(dp1923
g73
(dp1924
g93
g94
ssg82
g1918
sg75
(lp1925
g1314
asbag68
(g89
g70
NtRp1926
(dp1927
g73
(dp1928
g100
g101
ssg82
g1918
sg75
(lp1929
S':'
asbag68
(g89
g70
NtRp1930
(dp1931
g73
(dp1932
sg82
g1918
sg75
(lp1933
g68
(g69
g70
NtRp1934
(dp1935
g73
(dp1936
g81
I4
ssg82
g1930
sg75
(lp1937
g68
(g77
g70
NtRp1938
(dp1939
g73
(dp1940
g81
I3
ssg82
Nsg75
(lp1941
g68
(g84
g70
NtRp1942
(dp1943
g73
(dp1944
sg82
g1938
sg75
(lp1945
g68
(g89
g70
NtRp1946
(dp1947
g73
(dp1948
sg82
g1942
sg75
(lp1949
g68
(g69
g70
NtRp1950
(dp1951
g73
(dp1952
g81
I3
ssg82
g1946
sg75
(lp1953
S'1'
asbasbasbag68
(g84
g70
NtRp1954
(dp1955
g73
(dp1956
sg82
g1938
sg75
(lp1957
g68
(g89
g70
NtRp1958
(dp1959
g73
(dp1960
sg82
g1954
sg75
(lp1961
g68
(g69
g70
NtRp1962
(dp1963
g73
(dp1964
g81
I3
ssg82
g1958
sg75
(lp1965
S'99'
p1966
asbasbasbag68
(g84
g70
NtRp1967
(dp1968
g73
(dp1969
sg82
g1938
sg75
(lp1970
g68
(g89
g70
NtRp1971
(dp1972
g73
(dp1973
sg82
g1967
sg75
(lp1974
g68
(g69
g70
NtRp1975
(dp1976
g73
(dp1977
g81
I3
ssg82
g1971
sg75
(lp1978
S'7'
asbasbasbag68
(g84
g70
NtRp1979
(dp1980
g73
(dp1981
sg82
g1938
sg75
(lp1982
g68
(g89
g70
NtRp1983
(dp1984
g73
(dp1985
sg82
g1979
sg75
(lp1986
g68
(g69
g70
NtRp1987
(dp1988
g73
(dp1989
g81
I3
ssg82
g1983
sg75
(lp1990
S'datetime.datetime(2012, 3, 4, 22, 12, 8)'
p1991
asbasbasbag68
(g84
g70
NtRp1992
(dp1993
g73
(dp1994
sg82
g1938
sg75
(lp1995
g68
(g89
g70
NtRp1996
(dp1997
g73
(dp1998
sg82
g1992
sg75
(lp1999
g68
(g69
g70
NtRp2000
(dp2001
g73
(dp2002
g81
I3
ssg82
g1996
sg75
(lp2003
g1393
asbasbasbasbasbasbasbasbasbasbasbag68
(g84
g70
NtRp2004
(dp2005
g73
(dp2006
sg82
g78
sg75
(lp2007
g68
(g89
g70
NtRp2008
(dp2009
g73
(dp2010
g93
g94
ssg82
g2004
sg75
(lp2011
S'is_https'
p2012
asbag68
(g89
g70
NtRp2013
(dp2014
g73
(dp2015
g100
g101
ssg82
g2004
sg75
(lp2016
S':'
asbag68
(g89
g70
NtRp2017
(dp2018
g73
(dp2019
sg82
g2004
sg75
(lp2020
g68
(g69
g70
NtRp2021
(dp2022
g73
(dp2023
g81
I5
ssg82
g2017
sg75
(lp2024
g111
asbasbasbag68
(g84
g70
NtRp2025
(dp2026
g73
(dp2027
sg82
g78
sg75
(lp2028
g68
(g89
g70
NtRp2029
(dp2030
g73
(dp2031
g93
g94
ssg82
g2025
sg75
(lp2032
S'is_local'
p2033
asbag68
(g89
g70
NtRp2034
(dp2035
g73
(dp2036
g100
g101
ssg82
g2025
sg75
(lp2037
S':'
asbag68
(g89
g70
NtRp2038
(dp2039
g73
(dp2040
sg82
g2025
sg75
(lp2041
g68
(g69
g70
NtRp2042
(dp2043
g73
(dp2044
g81
I5
ssg82
g2038
sg75
(lp2045
g1502
asbasbasbag68
(g84
g70
NtRp2046
(dp2047
g73
(dp2048
sg82
g78
sg75
(lp2049
g68
(g89
g70
NtRp2050
(dp2051
g73
(dp2052
g93
g94
ssg82
g2046
sg75
(lp2053
S'is_restful'
p2054
asbag68
(g89
g70
NtRp2055
(dp2056
g73
(dp2057
g100
g101
ssg82
g2046
sg75
(lp2058
S':'
asbag68
(g89
g70
NtRp2059
(dp2060
g73
(dp2061
sg82
g2046
sg75
(lp2062
g68
(g69
g70
NtRp2063
(dp2064
g73
(dp2065
g81
I5
ssg82
g2059
sg75
(lp2066
g111
asbasbasbag68
(g84
g70
NtRp2067
(dp2068
g73
(dp2069
sg82
g78
sg75
(lp2070
g68
(g89
g70
NtRp2071
(dp2072
g73
(dp2073
g93
g94
ssg82
g2067
sg75
(lp2074
S'now'
p2075
asbag68
(g89
g70
NtRp2076
(dp2077
g73
(dp2078
g100
g101
ssg82
g2067
sg75
(lp2079
S':'
asbag68
(g89
g70
NtRp2080
(dp2081
g73
(dp2082
sg82
g2067
sg75
(lp2083
g68
(g69
g70
NtRp2084
(dp2085
g73
(dp2086
g81
I5
ssg82
g2080
sg75
(lp2087
S'datetime.datetime(2013, 1, 11, 12, 12, 2, 891000)'
p2088
asbasbasbag68
(g84
g70
NtRp2089
(dp2090
g73
(dp2091
sg82
g78
sg75
(lp2092
g68
(g89
g70
NtRp2093
(dp2094
g73
(dp2095
g93
g94
ssg82
g2089
sg75
(lp2096
S'post_vars'
p2097
asbag68
(g89
g70
NtRp2098
(dp2099
g73
(dp2100
g100
g101
ssg82
g2089
sg75
(lp2101
S':'
asbag68
(g89
g70
NtRp2102
(dp2103
g73
(dp2104
sg82
g2089
sg75
(lp2105
g68
(g69
g70
NtRp2106
(dp2107
g73
(dp2108
g81
I5
ssg82
g2102
sg75
(lp2109
g68
(g77
g70
NtRp2110
(dp2111
g73
(dp2112
g81
I4
ssg82
Nsg75
(lp2113
sbasbasbasbag68
(g84
g70
NtRp2114
(dp2115
g73
(dp2116
sg82
g78
sg75
(lp2117
g68
(g89
g70
NtRp2118
(dp2119
g73
(dp2120
g93
g94
ssg82
g2114
sg75
(lp2121
S'url'
p2122
asbag68
(g89
g70
NtRp2123
(dp2124
g73
(dp2125
g100
g101
ssg82
g2114
sg75
(lp2126
S':'
asbag68
(g89
g70
NtRp2127
(dp2128
g73
(dp2129
sg82
g2114
sg75
(lp2130
g68
(g69
g70
NtRp2131
(dp2132
g73
(dp2133
g81
I5
ssg82
g2127
sg75
(lp2134
S'/Graficos/tela/index'
p2135
asbasbasbag68
(g84
g70
NtRp2136
(dp2137
g73
(dp2138
sg82
g78
sg75
(lp2139
g68
(g89
g70
NtRp2140
(dp2141
g73
(dp2142
g93
g94
ssg82
g2136
sg75
(lp2143
S'utcnow'
p2144
asbag68
(g89
g70
NtRp2145
(dp2146
g73
(dp2147
g100
g101
ssg82
g2136
sg75
(lp2148
S':'
asbag68
(g89
g70
NtRp2149
(dp2150
g73
(dp2151
sg82
g2136
sg75
(lp2152
g68
(g69
g70
NtRp2153
(dp2154
g73
(dp2155
g81
I5
ssg82
g2149
sg75
(lp2156
S'datetime.datetime(2013, 1, 11, 15, 12, 2, 891000)'
p2157
asbasbasbag68
(g84
g70
NtRp2158
(dp2159
g73
(dp2160
sg82
g78
sg75
(lp2161
g68
(g89
g70
NtRp2162
(dp2163
g73
(dp2164
g93
g94
ssg82
g2158
sg75
(lp2165
S'uuid'
p2166
asbag68
(g89
g70
NtRp2167
(dp2168
g73
(dp2169
g100
g101
ssg82
g2158
sg75
(lp2170
S':'
asbag68
(g89
g70
NtRp2171
(dp2172
g73
(dp2173
sg82
g2158
sg75
(lp2174
g68
(g69
g70
NtRp2175
(dp2176
g73
(dp2177
g81
I5
ssg82
g2171
sg75
(lp2178
S'Graficos/127.0.0.1.2013-01-11.12-12-02.692dbefd-9189-41ea-8d59-422942a089dc'
p2179
asbasbasbag68
(g84
g70
NtRp2180
(dp2181
g73
(dp2182
sg82
g78
sg75
(lp2183
g68
(g89
g70
NtRp2184
(dp2185
g73
(dp2186
g93
g94
ssg82
g2180
sg75
(lp2187
S'vars'
p2188
asbag68
(g89
g70
NtRp2189
(dp2190
g73
(dp2191
g100
g101
ssg82
g2180
sg75
(lp2192
S':'
asbag68
(g89
g70
NtRp2193
(dp2194
g73
(dp2195
sg82
g2180
sg75
(lp2196
g68
(g69
g70
NtRp2197
(dp2198
g73
(dp2199
g81
I5
ssg82
g2193
sg75
(lp2200
g68
(g77
g70
NtRp2201
(dp2202
g73
(dp2203
g81
I4
ssg82
Nsg75
(lp2204
sbasbasbasbag68
(g84
g70
NtRp2205
(dp2206
g73
(dp2207
sg82
g78
sg75
(lp2208
g68
(g89
g70
NtRp2209
(dp2210
g73
(dp2211
g93
g94
ssg82
g2205
sg75
(lp2212
S'wsgi'
p2213
asbag68
(g89
g70
NtRp2214
(dp2215
g73
(dp2216
g100
g101
ssg82
g2205
sg75
(lp2217
S':'
asbag68
(g89
g70
NtRp2218
(dp2219
g73
(dp2220
sg82
g2205
sg75
(lp2221
g68
(g69
g70
NtRp2222
(dp2223
g73
(dp2224
g81
I5
ssg82
g2218
sg75
(lp2225
g68
(g77
g70
NtRp2226
(dp2227
g73
(dp2228
g81
I4
ssg82
Nsg75
(lp2229
g68
(g84
g70
NtRp2230
(dp2231
g73
(dp2232
sg82
g2226
sg75
(lp2233
g68
(g89
g70
NtRp2234
(dp2235
g73
(dp2236
g93
g94
ssg82
g2230
sg75
(lp2237
S'environ'
p2238
asbag68
(g89
g70
NtRp2239
(dp2240
g73
(dp2241
g100
g101
ssg82
g2230
sg75
(lp2242
S':'
asbag68
(g89
g70
NtRp2243
(dp2244
g73
(dp2245
sg82
g2230
sg75
(lp2246
g68
(g69
g70
NtRp2247
(dp2248
g73
(dp2249
g81
I4
ssg82
g2243
sg75
(lp2250
g68
(g77
g70
NtRp2251
(dp2252
g73
(dp2253
g81
I3
ssg82
Nsg75
(lp2254
g68
(g84
g70
NtRp2255
(dp2256
g73
(dp2257
sg82
g2251
sg75
(lp2258
g68
(g89
g70
NtRp2259
(dp2260
g73
(dp2261
g93
g94
ssg82
g2255
sg75
(lp2262
S'HTTP_ACCEPT'
p2263
asbag68
(g89
g70
NtRp2264
(dp2265
g73
(dp2266
g100
g101
ssg82
g2255
sg75
(lp2267
S':'
asbag68
(g89
g70
NtRp2268
(dp2269
g73
(dp2270
sg82
g2255
sg75
(lp2271
g68
(g69
g70
NtRp2272
(dp2273
g73
(dp2274
g81
I3
ssg82
g2268
sg75
(lp2275
g829
asbasbasbag68
(g84
g70
NtRp2276
(dp2277
g73
(dp2278
sg82
g2251
sg75
(lp2279
g68
(g89
g70
NtRp2280
(dp2281
g73
(dp2282
g93
g94
ssg82
g2276
sg75
(lp2283
S'HTTP_ACCEPT_ENCODING'
p2284
asbag68
(g89
g70
NtRp2285
(dp2286
g73
(dp2287
g100
g101
ssg82
g2276
sg75
(lp2288
S':'
asbag68
(g89
g70
NtRp2289
(dp2290
g73
(dp2291
sg82
g2276
sg75
(lp2292
g68
(g69
g70
NtRp2293
(dp2294
g73
(dp2295
g81
I3
ssg82
g2289
sg75
(lp2296
g851
asbasbasbag68
(g84
g70
NtRp2297
(dp2298
g73
(dp2299
sg82
g2251
sg75
(lp2300
g68
(g89
g70
NtRp2301
(dp2302
g73
(dp2303
g93
g94
ssg82
g2297
sg75
(lp2304
S'HTTP_ACCEPT_LANGUAGE'
p2305
asbag68
(g89
g70
NtRp2306
(dp2307
g73
(dp2308
g100
g101
ssg82
g2297
sg75
(lp2309
S':'
asbag68
(g89
g70
NtRp2310
(dp2311
g73
(dp2312
sg82
g2297
sg75
(lp2313
g68
(g69
g70
NtRp2314
(dp2315
g73
(dp2316
g81
I3
ssg82
g2310
sg75
(lp2317
g873
asbasbasbag68
(g84
g70
NtRp2318
(dp2319
g73
(dp2320
sg82
g2251
sg75
(lp2321
g68
(g89
g70
NtRp2322
(dp2323
g73
(dp2324
g93
g94
ssg82
g2318
sg75
(lp2325
S'HTTP_CONNECTION'
p2326
asbag68
(g89
g70
NtRp2327
(dp2328
g73
(dp2329
g100
g101
ssg82
g2318
sg75
(lp2330
S':'
asbag68
(g89
g70
NtRp2331
(dp2332
g73
(dp2333
sg82
g2318
sg75
(lp2334
g68
(g69
g70
NtRp2335
(dp2336
g73
(dp2337
g81
I3
ssg82
g2331
sg75
(lp2338
g895
asbasbasbag68
(g84
g70
NtRp2339
(dp2340
g73
(dp2341
sg82
g2251
sg75
(lp2342
g68
(g89
g70
NtRp2343
(dp2344
g73
(dp2345
g93
g94
ssg82
g2339
sg75
(lp2346
S'HTTP_COOKIE'
p2347
asbag68
(g89
g70
NtRp2348
(dp2349
g73
(dp2350
g100
g101
ssg82
g2339
sg75
(lp2351
S':'
asbag68
(g89
g70
NtRp2352
(dp2353
g73
(dp2354
sg82
g2339
sg75
(lp2355
g68
(g69
g70
NtRp2356
(dp2357
g73
(dp2358
g81
I3
ssg82
g2352
sg75
(lp2359
g917
asbasbasbag68
(g84
g70
NtRp2360
(dp2361
g73
(dp2362
sg82
g2251
sg75
(lp2363
g68
(g89
g70
NtRp2364
(dp2365
g73
(dp2366
g93
g94
ssg82
g2360
sg75
(lp2367
S'HTTP_HOST'
p2368
asbag68
(g89
g70
NtRp2369
(dp2370
g73
(dp2371
g100
g101
ssg82
g2360
sg75
(lp2372
S':'
asbag68
(g89
g70
NtRp2373
(dp2374
g73
(dp2375
sg82
g2360
sg75
(lp2376
g68
(g69
g70
NtRp2377
(dp2378
g73
(dp2379
g81
I3
ssg82
g2373
sg75
(lp2380
g939
asbasbasbag68
(g84
g70
NtRp2381
(dp2382
g73
(dp2383
sg82
g2251
sg75
(lp2384
g68
(g89
g70
NtRp2385
(dp2386
g73
(dp2387
g93
g94
ssg82
g2381
sg75
(lp2388
S'HTTP_USER_AGENT'
p2389
asbag68
(g89
g70
NtRp2390
(dp2391
g73
(dp2392
g100
g101
ssg82
g2381
sg75
(lp2393
S':'
asbag68
(g89
g70
NtRp2394
(dp2395
g73
(dp2396
sg82
g2381
sg75
(lp2397
g68
(g69
g70
NtRp2398
(dp2399
g73
(dp2400
g81
I3
ssg82
g2394
sg75
(lp2401
g961
asbasbasbag68
(g84
g70
NtRp2402
(dp2403
g73
(dp2404
sg82
g2251
sg75
(lp2405
g68
(g89
g70
NtRp2406
(dp2407
g73
(dp2408
g93
g94
ssg82
g2402
sg75
(lp2409
S'PATH_INFO'
p2410
asbag68
(g89
g70
NtRp2411
(dp2412
g73
(dp2413
g100
g101
ssg82
g2402
sg75
(lp2414
S':'
asbag68
(g89
g70
NtRp2415
(dp2416
g73
(dp2417
sg82
g2402
sg75
(lp2418
g68
(g69
g70
NtRp2419
(dp2420
g73
(dp2421
g81
I3
ssg82
g2415
sg75
(lp2422
g1025
asbasbasbag68
(g84
g70
NtRp2423
(dp2424
g73
(dp2425
sg82
g2251
sg75
(lp2426
g68
(g89
g70
NtRp2427
(dp2428
g73
(dp2429
g93
g94
ssg82
g2423
sg75
(lp2430
S'QUERY_STRING'
p2431
asbag68
(g89
g70
NtRp2432
(dp2433
g73
(dp2434
g100
g101
ssg82
g2423
sg75
(lp2435
S':'
asbag68
(g89
g70
NtRp2436
(dp2437
g73
(dp2438
sg82
g2423
sg75
(lp2439
g68
(g69
g70
NtRp2440
(dp2441
g73
(dp2442
g81
I3
ssg82
g2436
sg75
(lp2443
S''
asbasbasbag68
(g84
g70
NtRp2444
(dp2445
g73
(dp2446
sg82
g2251
sg75
(lp2447
g68
(g89
g70
NtRp2448
(dp2449
g73
(dp2450
g93
g94
ssg82
g2444
sg75
(lp2451
S'REMOTE_ADDR'
p2452
asbag68
(g89
g70
NtRp2453
(dp2454
g73
(dp2455
g100
g101
ssg82
g2444
sg75
(lp2456
S':'
asbag68
(g89
g70
NtRp2457
(dp2458
g73
(dp2459
sg82
g2444
sg75
(lp2460
g68
(g69
g70
NtRp2461
(dp2462
g73
(dp2463
g81
I3
ssg82
g2457
sg75
(lp2464
g201
asbasbasbag68
(g84
g70
NtRp2465
(dp2466
g73
(dp2467
sg82
g2251
sg75
(lp2468
g68
(g89
g70
NtRp2469
(dp2470
g73
(dp2471
g93
g94
ssg82
g2465
sg75
(lp2472
S'REMOTE_PORT'
p2473
asbag68
(g89
g70
NtRp2474
(dp2475
g73
(dp2476
g100
g101
ssg82
g2465
sg75
(lp2477
S':'
asbag68
(g89
g70
NtRp2478
(dp2479
g73
(dp2480
sg82
g2465
sg75
(lp2481
g68
(g69
g70
NtRp2482
(dp2483
g73
(dp2484
g81
I3
ssg82
g2478
sg75
(lp2485
g1089
asbasbasbag68
(g84
g70
NtRp2486
(dp2487
g73
(dp2488
sg82
g2251
sg75
(lp2489
g68
(g89
g70
NtRp2490
(dp2491
g73
(dp2492
g93
g94
ssg82
g2486
sg75
(lp2493
S'REQUEST_METHOD'
p2494
asbag68
(g89
g70
NtRp2495
(dp2496
g73
(dp2497
g100
g101
ssg82
g2486
sg75
(lp2498
S':'
asbag68
(g89
g70
NtRp2499
(dp2500
g73
(dp2501
sg82
g2486
sg75
(lp2502
g68
(g69
g70
NtRp2503
(dp2504
g73
(dp2505
g81
I3
ssg82
g2499
sg75
(lp2506
g1111
asbasbasbag68
(g84
g70
NtRp2507
(dp2508
g73
(dp2509
sg82
g2251
sg75
(lp2510
g68
(g89
g70
NtRp2511
(dp2512
g73
(dp2513
g93
g94
ssg82
g2507
sg75
(lp2514
S'REQUEST_URI'
p2515
asbag68
(g89
g70
NtRp2516
(dp2517
g73
(dp2518
g100
g101
ssg82
g2507
sg75
(lp2519
S':'
asbag68
(g89
g70
NtRp2520
(dp2521
g73
(dp2522
sg82
g2507
sg75
(lp2523
g68
(g69
g70
NtRp2524
(dp2525
g73
(dp2526
g81
I3
ssg82
g2520
sg75
(lp2527
g1025
asbasbasbag68
(g84
g70
NtRp2528
(dp2529
g73
(dp2530
sg82
g2251
sg75
(lp2531
g68
(g89
g70
NtRp2532
(dp2533
g73
(dp2534
g93
g94
ssg82
g2528
sg75
(lp2535
S'SCRIPT_NAME'
p2536
asbag68
(g89
g70
NtRp2537
(dp2538
g73
(dp2539
g100
g101
ssg82
g2528
sg75
(lp2540
S':'
asbag68
(g89
g70
NtRp2541
(dp2542
g73
(dp2543
sg82
g2528
sg75
(lp2544
g68
(g69
g70
NtRp2545
(dp2546
g73
(dp2547
g81
I3
ssg82
g2541
sg75
(lp2548
S''
asbasbasbag68
(g84
g70
NtRp2549
(dp2550
g73
(dp2551
sg82
g2251
sg75
(lp2552
g68
(g89
g70
NtRp2553
(dp2554
g73
(dp2555
g93
g94
ssg82
g2549
sg75
(lp2556
S'SERVER_NAME'
p2557
asbag68
(g89
g70
NtRp2558
(dp2559
g73
(dp2560
g100
g101
ssg82
g2549
sg75
(lp2561
S':'
asbag68
(g89
g70
NtRp2562
(dp2563
g73
(dp2564
sg82
g2549
sg75
(lp2565
g68
(g69
g70
NtRp2566
(dp2567
g73
(dp2568
g81
I3
ssg82
g2562
sg75
(lp2569
g1175
asbasbasbag68
(g84
g70
NtRp2570
(dp2571
g73
(dp2572
sg82
g2251
sg75
(lp2573
g68
(g89
g70
NtRp2574
(dp2575
g73
(dp2576
g93
g94
ssg82
g2570
sg75
(lp2577
S'SERVER_PORT'
p2578
asbag68
(g89
g70
NtRp2579
(dp2580
g73
(dp2581
g100
g101
ssg82
g2570
sg75
(lp2582
S':'
asbag68
(g89
g70
NtRp2583
(dp2584
g73
(dp2585
sg82
g2570
sg75
(lp2586
g68
(g69
g70
NtRp2587
(dp2588
g73
(dp2589
g81
I3
ssg82
g2583
sg75
(lp2590
g1197
asbasbasbag68
(g84
g70
NtRp2591
(dp2592
g73
(dp2593
sg82
g2251
sg75
(lp2594
g68
(g89
g70
NtRp2595
(dp2596
g73
(dp2597
g93
g94
ssg82
g2591
sg75
(lp2598
S'SERVER_PROTOCOL'
p2599
asbag68
(g89
g70
NtRp2600
(dp2601
g73
(dp2602
g100
g101
ssg82
g2591
sg75
(lp2603
S':'
asbag68
(g89
g70
NtRp2604
(dp2605
g73
(dp2606
sg82
g2591
sg75
(lp2607
g68
(g69
g70
NtRp2608
(dp2609
g73
(dp2610
g81
I3
ssg82
g2604
sg75
(lp2611
g1219
asbasbasbag68
(g84
g70
NtRp2612
(dp2613
g73
(dp2614
sg82
g2251
sg75
(lp2615
g68
(g89
g70
NtRp2616
(dp2617
g73
(dp2618
g93
g94
ssg82
g2612
sg75
(lp2619
S'SERVER_SOFTWARE'
p2620
asbag68
(g89
g70
NtRp2621
(dp2622
g73
(dp2623
g100
g101
ssg82
g2612
sg75
(lp2624
S':'
asbag68
(g89
g70
NtRp2625
(dp2626
g73
(dp2627
sg82
g2612
sg75
(lp2628
g68
(g69
g70
NtRp2629
(dp2630
g73
(dp2631
g81
I3
ssg82
g2625
sg75
(lp2632
g1241
asbasbasbag68
(g84
g70
NtRp2633
(dp2634
g73
(dp2635
sg82
g2251
sg75
(lp2636
g68
(g89
g70
NtRp2637
(dp2638
g73
(dp2639
g93
g94
ssg82
g2633
sg75
(lp2640
S'WEB2PY_ORIGINAL_URI'
p2641
asbag68
(g89
g70
NtRp2642
(dp2643
g73
(dp2644
g100
g101
ssg82
g2633
sg75
(lp2645
S':'
asbag68
(g89
g70
NtRp2646
(dp2647
g73
(dp2648
sg82
g2633
sg75
(lp2649
g68
(g69
g70
NtRp2650
(dp2651
g73
(dp2652
g81
I3
ssg82
g2646
sg75
(lp2653
g1025
asbasbasbag68
(g84
g70
NtRp2654
(dp2655
g73
(dp2656
sg82
g2251
sg75
(lp2657
g68
(g89
g70
NtRp2658
(dp2659
g73
(dp2660
g93
g94
ssg82
g2654
sg75
(lp2661
S'wsgi.errors'
p2662
asbag68
(g89
g70
NtRp2663
(dp2664
g73
(dp2665
g100
g101
ssg82
g2654
sg75
(lp2666
S':'
asbag68
(g89
g70
NtRp2667
(dp2668
g73
(dp2669
sg82
g2654
sg75
(lp2670
g68
(g69
g70
NtRp2671
(dp2672
g73
(dp2673
g81
I3
ssg82
g2667
sg75
(lp2674
S"<open file '<stderr>', mode 'w' at 0x01E450D0>"
p2675
asbasbasbag68
(g84
g70
NtRp2676
(dp2677
g73
(dp2678
sg82
g2251
sg75
(lp2679
g68
(g89
g70
NtRp2680
(dp2681
g73
(dp2682
g93
g94
ssg82
g2676
sg75
(lp2683
S'wsgi.file_wrapper'
p2684
asbag68
(g89
g70
NtRp2685
(dp2686
g73
(dp2687
g100
g101
ssg82
g2676
sg75
(lp2688
S':'
asbag68
(g89
g70
NtRp2689
(dp2690
g73
(dp2691
sg82
g2676
sg75
(lp2692
g68
(g69
g70
NtRp2693
(dp2694
g73
(dp2695
g81
I3
ssg82
g2689
sg75
(lp2696
S'<class wsgiref.util.FileWrapper at 0x03972768>'
p2697
asbasbasbag68
(g84
g70
NtRp2698
(dp2699
g73
(dp2700
sg82
g2251
sg75
(lp2701
g68
(g89
g70
NtRp2702
(dp2703
g73
(dp2704
g93
g94
ssg82
g2698
sg75
(lp2705
S'wsgi.input'
p2706
asbag68
(g89
g70
NtRp2707
(dp2708
g73
(dp2709
g100
g101
ssg82
g2698
sg75
(lp2710
S':'
asbag68
(g89
g70
NtRp2711
(dp2712
g73
(dp2713
sg82
g2698
sg75
(lp2714
g68
(g69
g70
NtRp2715
(dp2716
g73
(dp2717
g81
I3
ssg82
g2711
sg75
(lp2718
S'<cStringIO.StringO object at 0x06E4CAE0>'
p2719
asbasbasbag68
(g84
g70
NtRp2720
(dp2721
g73
(dp2722
sg82
g2251
sg75
(lp2723
g68
(g89
g70
NtRp2724
(dp2725
g73
(dp2726
g93
g94
ssg82
g2720
sg75
(lp2727
S'wsgi.multiprocess'
p2728
asbag68
(g89
g70
NtRp2729
(dp2730
g73
(dp2731
g100
g101
ssg82
g2720
sg75
(lp2732
S':'
asbag68
(g89
g70
NtRp2733
(dp2734
g73
(dp2735
sg82
g2720
sg75
(lp2736
g68
(g69
g70
NtRp2737
(dp2738
g73
(dp2739
g81
I3
ssg82
g2733
sg75
(lp2740
g111
asbasbasbag68
(g84
g70
NtRp2741
(dp2742
g73
(dp2743
sg82
g2251
sg75
(lp2744
g68
(g89
g70
NtRp2745
(dp2746
g73
(dp2747
g93
g94
ssg82
g2741
sg75
(lp2748
S'wsgi.multithread'
p2749
asbag68
(g89
g70
NtRp2750
(dp2751
g73
(dp2752
g100
g101
ssg82
g2741
sg75
(lp2753
S':'
asbag68
(g89
g70
NtRp2754
(dp2755
g73
(dp2756
sg82
g2741
sg75
(lp2757
g68
(g69
g70
NtRp2758
(dp2759
g73
(dp2760
g81
I3
ssg82
g2754
sg75
(lp2761
g1502
asbasbasbag68
(g84
g70
NtRp2762
(dp2763
g73
(dp2764
sg82
g2251
sg75
(lp2765
g68
(g89
g70
NtRp2766
(dp2767
g73
(dp2768
g93
g94
ssg82
g2762
sg75
(lp2769
S'wsgi.run_once'
p2770
asbag68
(g89
g70
NtRp2771
(dp2772
g73
(dp2773
g100
g101
ssg82
g2762
sg75
(lp2774
S':'
asbag68
(g89
g70
NtRp2775
(dp2776
g73
(dp2777
sg82
g2762
sg75
(lp2778
g68
(g69
g70
NtRp2779
(dp2780
g73
(dp2781
g81
I3
ssg82
g2775
sg75
(lp2782
g111
asbasbasbag68
(g84
g70
NtRp2783
(dp2784
g73
(dp2785
sg82
g2251
sg75
(lp2786
g68
(g89
g70
NtRp2787
(dp2788
g73
(dp2789
g93
g94
ssg82
g2783
sg75
(lp2790
S'wsgi.url_scheme'
p2791
asbag68
(g89
g70
NtRp2792
(dp2793
g73
(dp2794
g100
g101
ssg82
g2783
sg75
(lp2795
S':'
asbag68
(g89
g70
NtRp2796
(dp2797
g73
(dp2798
sg82
g2783
sg75
(lp2799
g68
(g69
g70
NtRp2800
(dp2801
g73
(dp2802
g81
I3
ssg82
g2796
sg75
(lp2803
g1545
asbasbasbag68
(g84
g70
NtRp2804
(dp2805
g73
(dp2806
sg82
g2251
sg75
(lp2807
g68
(g89
g70
NtRp2808
(dp2809
g73
(dp2810
g93
g94
ssg82
g2804
sg75
(lp2811
S'wsgi.version'
p2812
asbag68
(g89
g70
NtRp2813
(dp2814
g73
(dp2815
g100
g101
ssg82
g2804
sg75
(lp2816
S':'
asbag68
(g89
g70
NtRp2817
(dp2818
g73
(dp2819
sg82
g2804
sg75
(lp2820
g68
(g69
g70
NtRp2821
(dp2822
g73
(dp2823
g81
I3
ssg82
g2817
sg75
(lp2824
S'1'
asbasbasbasbasbasbasbasbasbasbasbasbasbsS'frames'
p2825
(lp2826
(dp2827
S'file'
p2828
S'C:\\Python27\\web2py\\gluon\\restricted.py'
p2829
sS'dump'
p2830
(dp2831
S'environment'
p2832
S"{'A': <class 'gluon.html.A'>, 'B': <class 'gluon.html.B'>, 'BEAUTIFY': <class 'gluon.html.BEAUTIFY'>, 'BODY': <class 'gluon.html.BODY'>, 'BR': <class 'gluon.html.BR'>, 'BUTTON': <class 'gluon.html.BUTTON'>, 'CAT': <class 'gluon.html.CAT'>, 'CENTER': <class 'gluon.html.CENTER'>, 'CLEANUP': <class 'gluon.validators.CLEANUP'>, 'CODE': <class 'gluon.html.CODE'>, ...}"
p2833
sS'ccode'
p2834
S'<code object <module> at 06E2C698, file "C:\\Pyth...plications\\Graficos\\controllers/tela.py", line 3>'
p2835
ssS'lnum'
p2836
I205
sS'lines'
p2837
(dp2838
I200
S'    try:'
p2839
sI201
S'        if type(code) == types.CodeType:'
p2840
sI202
S'            ccode = code'
p2841
sI203
S'        else:'
p2842
sI204
S'            ccode = compile2(code,layer)'
p2843
sI205
S'        exec ccode in environment'
p2844
sI206
S'    except HTTP:'
p2845
sI207
S'        raise'
p2846
sI208
S'    except RestrictedError:'
p2847
sI209
S'        # do not encapsulate (obfuscate) the original RestrictedError'
p2848
ssS'call'
p2849
S"(code='# -*- coding: utf-8 -*-\\n\\nfrom gluon.custom_impor...n html\\n\\n\\n\\nresponse._vars=response._caller(index)\\n', environment={'A': <class 'gluon.html.A'>, 'B': <class 'gluon.html.B'>, 'BEAUTIFY': <class 'gluon.html.BEAUTIFY'>, 'BODY': <class 'gluon.html.BODY'>, 'BR': <class 'gluon.html.BR'>, 'BUTTON': <class 'gluon.html.BUTTON'>, 'CAT': <class 'gluon.html.CAT'>, 'CENTER': <class 'gluon.html.CENTER'>, 'CLEANUP': <class 'gluon.validators.CLEANUP'>, 'CODE': <class 'gluon.html.CODE'>, ...}, layer=r'C:\\Python27\\web2py\\applications\\Graficos\\controllers/tela.py')"
p2850
sS'func'
p2851
S'restricted'
p2852
sa(dp2853
g2828
S'C:\\Python27\\web2py\\applications\\Graficos\\controllers\\tela.py'
p2854
sg2830
(dp2855
S'highcharts_thema'
p2856
S'undefined'
p2857
ssg2836
I6
sg2837
(dp2858
I2
S''
sI3
S'from gluon.custom_import import track_changes'
p2859
sI4
S'track_changes(True)'
p2860
sI5
S''
sI6
S'from highcharts import highcharts'
p2861
sI7
S''
sI8
S''
sI9
S'def index():'
p2862
sI10
S''
sI11
S'    chart = highcharts()'
p2863
ssg2849
S'()'
p2864
sg2851
S'<module>'
p2865
sa(dp2866
g2828
S'C:\\Python27\\web2py\\gluon\\custom_import.py'
p2867
sg2830
(dp2868
S'fromlist'
p2869
S"('highcharts',)"
p2870
sS'globals'
p2871
S"{'A': <class 'gluon.html.A'>, 'B': <class 'gluon.html.B'>, 'BEAUTIFY': <class 'gluon.html.BEAUTIFY'>, 'BODY': <class 'gluon.html.BODY'>, 'BR': <class 'gluon.html.BR'>, 'BUTTON': <class 'gluon.html.BUTTON'>, 'CAT': <class 'gluon.html.CAT'>, 'CENTER': <class 'gluon.html.CENTER'>, 'CLEANUP': <class 'gluon.validators.CLEANUP'>, 'CODE': <class 'gluon.html.CODE'>, ...}"
p2872
sS'locals'
p2873
S"{'A': <class 'gluon.html.A'>, 'B': <class 'gluon.html.B'>, 'BEAUTIFY': <class 'gluon.html.BEAUTIFY'>, 'BODY': <class 'gluon.html.BODY'>, 'BR': <class 'gluon.html.BR'>, 'BUTTON': <class 'gluon.html.BUTTON'>, 'CAT': <class 'gluon.html.CAT'>, 'CENTER': <class 'gluon.html.CENTER'>, 'CLEANUP': <class 'gluon.validators.CLEANUP'>, 'CODE': <class 'gluon.html.CODE'>, ...}"
p2874
sS'level'
p2875
S'-1'
p2876
ssg2836
I289
sg2837
(dp2877
I288
S'                            .__call__(modules_prefix+"."+name,'
p2878
sI289
S'                                    globals, locals, fromlist, level)'
p2879
sI290
S'                except ImportError:'
p2880
sI291
S'                    pass'
p2881
sI292
S'        return super(_Web2pyImporter, self).__call__(name, globals, locals,'
p2882
sI293
S'                                                    fromlist, level)'
p2883
sI284
S'                            globals, locals, fromlist, level)'
p2884
sI285
S'                    else:'
p2885
sI286
S'                        # import like "from x import a, b, ..."'
p2886
sI287
S'                        return super(_Web2pyImporter, self) \\'
p2887
ssg2849
S"(self=<gluon.custom_import._Web2pyDateTrackerImporter object>, name='highcharts', globals={'A': <class 'gluon.html.A'>, 'B': <class 'gluon.html.B'>, 'BEAUTIFY': <class 'gluon.html.BEAUTIFY'>, 'BODY': <class 'gluon.html.BODY'>, 'BR': <class 'gluon.html.BR'>, 'BUTTON': <class 'gluon.html.BUTTON'>, 'CAT': <class 'gluon.html.CAT'>, 'CENTER': <class 'gluon.html.CENTER'>, 'CLEANUP': <class 'gluon.validators.CLEANUP'>, 'CODE': <class 'gluon.html.CODE'>, ...}, locals={'A': <class 'gluon.html.A'>, 'B': <class 'gluon.html.B'>, 'BEAUTIFY': <class 'gluon.html.BEAUTIFY'>, 'BODY': <class 'gluon.html.BODY'>, 'BR': <class 'gluon.html.BR'>, 'BUTTON': <class 'gluon.html.BUTTON'>, 'CAT': <class 'gluon.html.CAT'>, 'CENTER': <class 'gluon.html.CENTER'>, 'CLEANUP': <class 'gluon.validators.CLEANUP'>, 'CODE': <class 'gluon.html.CODE'>, ...}, fromlist=('highcharts',), level=-1)"
p2888
sg2851
S'__call__'
p2889
sa(dp2890
g2828
S'C:\\Python27\\web2py\\gluon\\custom_import.py'
p2891
sg2830
(dp2892
S'e'
S"SyntaxError('invalid syntax', ('applications\\\\Gr...s\\\\modules\\\\highcharts.py', 40, 9, '    def \\n'))"
p2893
ssg2836
I132
sg2837
(dp2894
I128
S'            # Module maybe loaded for the 1st time so we need to set the date'
p2895
sI129
S'            self._update_dates(name, fromlist)'
p2896
sI130
S'            return result'
p2897
sI131
S'        except Exception, e:'
p2898
sI132
S"            raise e  # Don't hide something that went wrong"
p2899
sI133
S'        finally:'
p2900
sI134
S'            if call_begin_end:'
p2901
sI135
S'                self.end()'
p2902
sI136
S''
sI127
S'              .__call__(name, globals, locals, fromlist, level)'
p2903
ssg2849
S"(self=<gluon.custom_import._Web2pyDateTrackerImporter object>, name='applications.Graficos.modules.highcharts', globals={'A': <class 'gluon.html.A'>, 'B': <class 'gluon.html.B'>, 'BEAUTIFY': <class 'gluon.html.BEAUTIFY'>, 'BODY': <class 'gluon.html.BODY'>, 'BR': <class 'gluon.html.BR'>, 'BUTTON': <class 'gluon.html.BUTTON'>, 'CAT': <class 'gluon.html.CAT'>, 'CENTER': <class 'gluon.html.CENTER'>, 'CLEANUP': <class 'gluon.validators.CLEANUP'>, 'CODE': <class 'gluon.html.CODE'>, ...}, locals={'A': <class 'gluon.html.A'>, 'B': <class 'gluon.html.B'>, 'BEAUTIFY': <class 'gluon.html.BEAUTIFY'>, 'BODY': <class 'gluon.html.BODY'>, 'BR': <class 'gluon.html.BR'>, 'BUTTON': <class 'gluon.html.BUTTON'>, 'CAT': <class 'gluon.html.CAT'>, 'CENTER': <class 'gluon.html.CENTER'>, 'CLEANUP': <class 'gluon.validators.CLEANUP'>, 'CODE': <class 'gluon.html.CODE'>, ...}, fromlist=('highcharts',), level=-1)"
p2904
sg2851
g2889
sasS'pyver'
p2905
S'Python 2.7.3: C:\\Python27\\python.exe'
p2906
sS'session'
p2907
g68
(g69
g70
NtRp2908
(dp2909
g73
(dp2910
sg75
(lp2911
g68
(g77
g70
NtRp2912
(dp2913
g73
(dp2914
g81
I5
ssg82
Nsg75
(lp2915
sbasbsS'etype'
p2916
S"<type 'exceptions.SyntaxError'>"
p2917
sS'date'
p2918
S'Fri Jan 11 12:12:02 2013'
p2919
sS'response'
p2920
g68
(g69
g70
NtRp2921
(dp2922
g73
(dp2923
sg75
(lp2924
g68
(g77
g70
NtRp2925
(dp2926
g73
(dp2927
g81
I5
ssg82
Nsg75
(lp2928
g68
(g84
g70
NtRp2929
(dp2930
g73
(dp2931
sg82
g2925
sg75
(lp2932
g68
(g89
g70
NtRp2933
(dp2934
g73
(dp2935
g93
g94
ssg82
g2929
sg75
(lp2936
g166
asbag68
(g89
g70
NtRp2937
(dp2938
g73
(dp2939
g100
g101
ssg82
g2929
sg75
(lp2940
S':'
asbag68
(g89
g70
NtRp2941
(dp2942
g73
(dp2943
sg82
g2929
sg75
(lp2944
g68
(g69
g70
NtRp2945
(dp2946
g73
(dp2947
g81
I5
ssg82
g2941
sg75
(lp2948
S'<cStringIO.StringO object at 0x06CF01E0>'
p2949
asbasbasbag68
(g84
g70
NtRp2950
(dp2951
g73
(dp2952
sg82
g2925
sg75
(lp2953
g68
(g89
g70
NtRp2954
(dp2955
g73
(dp2956
g93
g94
ssg82
g2950
sg75
(lp2957
g232
asbag68
(g89
g70
NtRp2958
(dp2959
g73
(dp2960
g100
g101
ssg82
g2950
sg75
(lp2961
S':'
asbag68
(g89
g70
NtRp2962
(dp2963
g73
(dp2964
sg82
g2950
sg75
(lp2965
g68
(g69
g70
NtRp2966
(dp2967
g73
(dp2968
g81
I5
ssg82
g2962
sg75
(lp2969
g68
(g77
g70
NtRp2970
(dp2971
g73
(dp2972
g81
I4
ssg82
Nsg75
(lp2973
g68
(g84
g70
NtRp2974
(dp2975
g73
(dp2976
sg82
g2970
sg75
(lp2977
g68
(g89
g70
NtRp2978
(dp2979
g73
(dp2980
g93
g94
ssg82
g2974
sg75
(lp2981
S'session_id_graficos'
p2982
asbag68
(g89
g70
NtRp2983
(dp2984
g73
(dp2985
g100
g101
ssg82
g2974
sg75
(lp2986
S':'
asbag68
(g89
g70
NtRp2987
(dp2988
g73
(dp2989
sg82
g2974
sg75
(lp2990
g68
(g69
g70
NtRp2991
(dp2992
g73
(dp2993
g81
I4
ssg82
g2987
sg75
(lp2994
g68
(g77
g70
NtRp2995
(dp2996
g73
(dp2997
g81
I3
ssg82
Nsg75
(lp2998
g68
(g84
g70
NtRp2999
(dp3000
g73
(dp3001
sg82
g2995
sg75
(lp3002
g68
(g89
g70
NtRp3003
(dp3004
g73
(dp3005
g93
g94
ssg82
g2999
sg75
(lp3006
g282
asbag68
(g89
g70
NtRp3007
(dp3008
g73
(dp3009
g100
g101
ssg82
g2999
sg75
(lp3010
S':'
asbag68
(g89
g70
NtRp3011
(dp3012
g73
(dp3013
sg82
g2999
sg75
(lp3014
g68
(g69
g70
NtRp3015
(dp3016
g73
(dp3017
g81
I3
ssg82
g3011
sg75
(lp3018
S''
asbasbasbag68
(g84
g70
NtRp3019
(dp3020
g73
(dp3021
sg82
g2995
sg75
(lp3022
g68
(g89
g70
NtRp3023
(dp3024
g73
(dp3025
g93
g94
ssg82
g3019
sg75
(lp3026
g303
asbag68
(g89
g70
NtRp3027
(dp3028
g73
(dp3029
g100
g101
ssg82
g3019
sg75
(lp3030
S':'
asbag68
(g89
g70
NtRp3031
(dp3032
g73
(dp3033
sg82
g3019
sg75
(lp3034
g68
(g69
g70
NtRp3035
(dp3036
g73
(dp3037
g81
I3
ssg82
g3031
sg75
(lp3038
S''
asbasbasbag68
(g84
g70
NtRp3039
(dp3040
g73
(dp3041
sg82
g2995
sg75
(lp3042
g68
(g89
g70
NtRp3043
(dp3044
g73
(dp3045
g93
g94
ssg82
g3039
sg75
(lp3046
g324
asbag68
(g89
g70
NtRp3047
(dp3048
g73
(dp3049
g100
g101
ssg82
g3039
sg75
(lp3050
S':'
asbag68
(g89
g70
NtRp3051
(dp3052
g73
(dp3053
sg82
g3039
sg75
(lp3054
g68
(g69
g70
NtRp3055
(dp3056
g73
(dp3057
g81
I3
ssg82
g3051
sg75
(lp3058
S''
asbasbasbag68
(g84
g70
NtRp3059
(dp3060
g73
(dp3061
sg82
g2995
sg75
(lp3062
g68
(g89
g70
NtRp3063
(dp3064
g73
(dp3065
g93
g94
ssg82
g3059
sg75
(lp3066
g345
asbag68
(g89
g70
NtRp3067
(dp3068
g73
(dp3069
g100
g101
ssg82
g3059
sg75
(lp3070
S':'
asbag68
(g89
g70
NtRp3071
(dp3072
g73
(dp3073
sg82
g3059
sg75
(lp3074
g68
(g69
g70
NtRp3075
(dp3076
g73
(dp3077
g81
I3
ssg82
g3071
sg75
(lp3078
S''
asbasbasbag68
(g84
g70
NtRp3079
(dp3080
g73
(dp3081
sg82
g2995
sg75
(lp3082
g68
(g89
g70
NtRp3083
(dp3084
g73
(dp3085
g93
g94
ssg82
g3079
sg75
(lp3086
g366
asbag68
(g89
g70
NtRp3087
(dp3088
g73
(dp3089
g100
g101
ssg82
g3079
sg75
(lp3090
S':'
asbag68
(g89
g70
NtRp3091
(dp3092
g73
(dp3093
sg82
g3079
sg75
(lp3094
g68
(g69
g70
NtRp3095
(dp3096
g73
(dp3097
g81
I3
ssg82
g3091
sg75
(lp3098
S''
asbasbasbag68
(g84
g70
NtRp3099
(dp3100
g73
(dp3101
sg82
g2995
sg75
(lp3102
g68
(g89
g70
NtRp3103
(dp3104
g73
(dp3105
g93
g94
ssg82
g3099
sg75
(lp3106
g387
asbag68
(g89
g70
NtRp3107
(dp3108
g73
(dp3109
g100
g101
ssg82
g3099
sg75
(lp3110
S':'
asbag68
(g89
g70
NtRp3111
(dp3112
g73
(dp3113
sg82
g3099
sg75
(lp3114
g68
(g69
g70
NtRp3115
(dp3116
g73
(dp3117
g81
I3
ssg82
g3111
sg75
(lp3118
S'/'
asbasbasbag68
(g84
g70
NtRp3119
(dp3120
g73
(dp3121
sg82
g2995
sg75
(lp3122
g68
(g89
g70
NtRp3123
(dp3124
g73
(dp3125
g93
g94
ssg82
g3119
sg75
(lp3126
g408
asbag68
(g89
g70
NtRp3127
(dp3128
g73
(dp3129
g100
g101
ssg82
g3119
sg75
(lp3130
S':'
asbag68
(g89
g70
NtRp3131
(dp3132
g73
(dp3133
sg82
g3119
sg75
(lp3134
g68
(g69
g70
NtRp3135
(dp3136
g73
(dp3137
g81
I3
ssg82
g3131
sg75
(lp3138
S''
asbasbasbag68
(g84
g70
NtRp3139
(dp3140
g73
(dp3141
sg82
g2995
sg75
(lp3142
g68
(g89
g70
NtRp3143
(dp3144
g73
(dp3145
g93
g94
ssg82
g3139
sg75
(lp3146
g429
asbag68
(g89
g70
NtRp3147
(dp3148
g73
(dp3149
g100
g101
ssg82
g3139
sg75
(lp3150
S':'
asbag68
(g89
g70
NtRp3151
(dp3152
g73
(dp3153
sg82
g3139
sg75
(lp3154
g68
(g69
g70
NtRp3155
(dp3156
g73
(dp3157
g81
I3
ssg82
g3151
sg75
(lp3158
S''
asbasbasbasbasbasbasbasbasbasbasbag68
(g84
g70
NtRp3159
(dp3160
g73
(dp3161
sg82
g2925
sg75
(lp3162
g68
(g89
g70
NtRp3163
(dp3164
g73
(dp3165
g93
g94
ssg82
g3159
sg75
(lp3166
S'delimiters'
p3167
asbag68
(g89
g70
NtRp3168
(dp3169
g73
(dp3170
g100
g101
ssg82
g3159
sg75
(lp3171
S':'
asbag68
(g89
g70
NtRp3172
(dp3173
g73
(dp3174
sg82
g3159
sg75
(lp3175
g68
(g69
g70
NtRp3176
(dp3177
g73
(dp3178
g81
I5
ssg82
g3172
sg75
(lp3179
g68
(g77
g70
NtRp3180
(dp3181
g73
(dp3182
g81
I4
ssg82
Nsg75
(lp3183
g68
(g84
g70
NtRp3184
(dp3185
g73
(dp3186
sg82
g3180
sg75
(lp3187
g68
(g89
g70
NtRp3188
(dp3189
g73
(dp3190
sg82
g3184
sg75
(lp3191
g68
(g69
g70
NtRp3192
(dp3193
g73
(dp3194
g81
I4
ssg82
g3188
sg75
(lp3195
S'{{'
p3196
asbasbasbag68
(g84
g70
NtRp3197
(dp3198
g73
(dp3199
sg82
g3180
sg75
(lp3200
g68
(g89
g70
NtRp3201
(dp3202
g73
(dp3203
sg82
g3197
sg75
(lp3204
g68
(g69
g70
NtRp3205
(dp3206
g73
(dp3207
g81
I4
ssg82
g3201
sg75
(lp3208
S'}}'
p3209
asbasbasbasbasbasbasbag68
(g84
g70
NtRp3210
(dp3211
g73
(dp3212
sg82
g2925
sg75
(lp3213
g68
(g89
g70
NtRp3214
(dp3215
g73
(dp3216
g93
g94
ssg82
g3210
sg75
(lp3217
S'files'
p3218
asbag68
(g89
g70
NtRp3219
(dp3220
g73
(dp3221
g100
g101
ssg82
g3210
sg75
(lp3222
S':'
asbag68
(g89
g70
NtRp3223
(dp3224
g73
(dp3225
sg82
g3210
sg75
(lp3226
g68
(g69
g70
NtRp3227
(dp3228
g73
(dp3229
g81
I5
ssg82
g3223
sg75
(lp3230
g68
(g77
g70
NtRp3231
(dp3232
g73
(dp3233
g81
I4
ssg82
Nsg75
(lp3234
sbasbasbasbag68
(g84
g70
NtRp3235
(dp3236
g73
(dp3237
sg82
g2925
sg75
(lp3238
g68
(g89
g70
NtRp3239
(dp3240
g73
(dp3241
g93
g94
ssg82
g3235
sg75
(lp3242
S'flash'
p3243
asbag68
(g89
g70
NtRp3244
(dp3245
g73
(dp3246
g100
g101
ssg82
g3235
sg75
(lp3247
S':'
asbag68
(g89
g70
NtRp3248
(dp3249
g73
(dp3250
sg82
g3235
sg75
(lp3251
g68
(g69
g70
NtRp3252
(dp3253
g73
(dp3254
g81
I5
ssg82
g3248
sg75
(lp3255
S''
asbasbasbag68
(g84
g70
NtRp3256
(dp3257
g73
(dp3258
sg82
g2925
sg75
(lp3259
g68
(g89
g70
NtRp3260
(dp3261
g73
(dp3262
g93
g94
ssg82
g3256
sg75
(lp3263
S'generic_patterns'
p3264
asbag68
(g89
g70
NtRp3265
(dp3266
g73
(dp3267
g100
g101
ssg82
g3256
sg75
(lp3268
S':'
asbag68
(g89
g70
NtRp3269
(dp3270
g73
(dp3271
sg82
g3256
sg75
(lp3272
g68
(g69
g70
NtRp3273
(dp3274
g73
(dp3275
g81
I5
ssg82
g3269
sg75
(lp3276
g68
(g77
g70
NtRp3277
(dp3278
g73
(dp3279
g81
I4
ssg82
Nsg75
(lp3280
sbasbasbasbag68
(g84
g70
NtRp3281
(dp3282
g73
(dp3283
sg82
g2925
sg75
(lp3284
g68
(g89
g70
NtRp3285
(dp3286
g73
(dp3287
g93
g94
ssg82
g3281
sg75
(lp3288
S'headers'
p3289
asbag68
(g89
g70
NtRp3290
(dp3291
g73
(dp3292
g100
g101
ssg82
g3281
sg75
(lp3293
S':'
asbag68
(g89
g70
NtRp3294
(dp3295
g73
(dp3296
sg82
g3281
sg75
(lp3297
g68
(g69
g70
NtRp3298
(dp3299
g73
(dp3300
g81
I5
ssg82
g3294
sg75
(lp3301
g68
(g77
g70
NtRp3302
(dp3303
g73
(dp3304
g81
I4
ssg82
Nsg75
(lp3305
g68
(g84
g70
NtRp3306
(dp3307
g73
(dp3308
sg82
g3302
sg75
(lp3309
g68
(g89
g70
NtRp3310
(dp3311
g73
(dp3312
g93
g94
ssg82
g3306
sg75
(lp3313
S'Cache-Control'
p3314
asbag68
(g89
g70
NtRp3315
(dp3316
g73
(dp3317
g100
g101
ssg82
g3306
sg75
(lp3318
S':'
asbag68
(g89
g70
NtRp3319
(dp3320
g73
(dp3321
sg82
g3306
sg75
(lp3322
g68
(g69
g70
NtRp3323
(dp3324
g73
(dp3325
g81
I4
ssg82
g3319
sg75
(lp3326
S'no-store, no-cache, must-revalidate, post-check=0, pre-check=0'
p3327
asbasbasbag68
(g84
g70
NtRp3328
(dp3329
g73
(dp3330
sg82
g3302
sg75
(lp3331
g68
(g89
g70
NtRp3332
(dp3333
g73
(dp3334
g93
g94
ssg82
g3328
sg75
(lp3335
S'Content-Type'
p3336
asbag68
(g89
g70
NtRp3337
(dp3338
g73
(dp3339
g100
g101
ssg82
g3328
sg75
(lp3340
S':'
asbag68
(g89
g70
NtRp3341
(dp3342
g73
(dp3343
sg82
g3328
sg75
(lp3344
g68
(g69
g70
NtRp3345
(dp3346
g73
(dp3347
g81
I4
ssg82
g3341
sg75
(lp3348
S'text/html; charset=utf-8'
p3349
asbasbasbag68
(g84
g70
NtRp3350
(dp3351
g73
(dp3352
sg82
g3302
sg75
(lp3353
g68
(g89
g70
NtRp3354
(dp3355
g73
(dp3356
g93
g94
ssg82
g3350
sg75
(lp3357
S'Expires'
p3358
asbag68
(g89
g70
NtRp3359
(dp3360
g73
(dp3361
g100
g101
ssg82
g3350
sg75
(lp3362
S':'
asbag68
(g89
g70
NtRp3363
(dp3364
g73
(dp3365
sg82
g3350
sg75
(lp3366
g68
(g69
g70
NtRp3367
(dp3368
g73
(dp3369
g81
I4
ssg82
g3363
sg75
(lp3370
S'Fri, 11 Jan 2013 15:12:02 GMT'
p3371
asbasbasbag68
(g84
g70
NtRp3372
(dp3373
g73
(dp3374
sg82
g3302
sg75
(lp3375
g68
(g89
g70
NtRp3376
(dp3377
g73
(dp3378
g93
g94
ssg82
g3372
sg75
(lp3379
S'Pragma'
p3380
asbag68
(g89
g70
NtRp3381
(dp3382
g73
(dp3383
g100
g101
ssg82
g3372
sg75
(lp3384
S':'
asbag68
(g89
g70
NtRp3385
(dp3386
g73
(dp3387
sg82
g3372
sg75
(lp3388
g68
(g69
g70
NtRp3389
(dp3390
g73
(dp3391
g81
I4
ssg82
g3385
sg75
(lp3392
S'no-cache'
p3393
asbasbasbag68
(g84
g70
NtRp3394
(dp3395
g73
(dp3396
sg82
g3302
sg75
(lp3397
g68
(g89
g70
NtRp3398
(dp3399
g73
(dp3400
g93
g94
ssg82
g3394
sg75
(lp3401
S'X-Powered-By'
p3402
asbag68
(g89
g70
NtRp3403
(dp3404
g73
(dp3405
g100
g101
ssg82
g3394
sg75
(lp3406
S':'
asbag68
(g89
g70
NtRp3407
(dp3408
g73
(dp3409
sg82
g3394
sg75
(lp3410
g68
(g69
g70
NtRp3411
(dp3412
g73
(dp3413
g81
I4
ssg82
g3407
sg75
(lp3414
S'web2py'
p3415
asbasbasbasbasbasbasbag68
(g84
g70
NtRp3416
(dp3417
g73
(dp3418
sg82
g2925
sg75
(lp3419
g68
(g89
g70
NtRp3420
(dp3421
g73
(dp3422
g93
g94
ssg82
g3416
sg75
(lp3423
S'menu'
p3424
asbag68
(g89
g70
NtRp3425
(dp3426
g73
(dp3427
g100
g101
ssg82
g3416
sg75
(lp3428
S':'
asbag68
(g89
g70
NtRp3429
(dp3430
g73
(dp3431
sg82
g3416
sg75
(lp3432
g68
(g69
g70
NtRp3433
(dp3434
g73
(dp3435
g81
I5
ssg82
g3429
sg75
(lp3436
g68
(g77
g70
NtRp3437
(dp3438
g73
(dp3439
g81
I4
ssg82
Nsg75
(lp3440
sbasbasbasbag68
(g84
g70
NtRp3441
(dp3442
g73
(dp3443
sg82
g2925
sg75
(lp3444
g68
(g89
g70
NtRp3445
(dp3446
g73
(dp3447
g93
g94
ssg82
g3441
sg75
(lp3448
S'meta'
p3449
asbag68
(g89
g70
NtRp3450
(dp3451
g73
(dp3452
g100
g101
ssg82
g3441
sg75
(lp3453
S':'
asbag68
(g89
g70
NtRp3454
(dp3455
g73
(dp3456
sg82
g3441
sg75
(lp3457
g68
(g69
g70
NtRp3458
(dp3459
g73
(dp3460
g81
I5
ssg82
g3454
sg75
(lp3461
g68
(g77
g70
NtRp3462
(dp3463
g73
(dp3464
g81
I4
ssg82
Nsg75
(lp3465
sbasbasbasbag68
(g84
g70
NtRp3466
(dp3467
g73
(dp3468
sg82
g2925
sg75
(lp3469
g68
(g89
g70
NtRp3470
(dp3471
g73
(dp3472
g93
g94
ssg82
g3466
sg75
(lp3473
S'postprocessing'
p3474
asbag68
(g89
g70
NtRp3475
(dp3476
g73
(dp3477
g100
g101
ssg82
g3466
sg75
(lp3478
S':'
asbag68
(g89
g70
NtRp3479
(dp3480
g73
(dp3481
sg82
g3466
sg75
(lp3482
g68
(g69
g70
NtRp3483
(dp3484
g73
(dp3485
g81
I5
ssg82
g3479
sg75
(lp3486
g68
(g77
g70
NtRp3487
(dp3488
g73
(dp3489
g81
I4
ssg82
Nsg75
(lp3490
sbasbasbasbag68
(g84
g70
NtRp3491
(dp3492
g73
(dp3493
sg82
g2925
sg75
(lp3494
g68
(g89
g70
NtRp3495
(dp3496
g73
(dp3497
g93
g94
ssg82
g3491
sg75
(lp3498
S'session_filename'
p3499
asbag68
(g89
g70
NtRp3500
(dp3501
g73
(dp3502
g100
g101
ssg82
g3491
sg75
(lp3503
S':'
asbag68
(g89
g70
NtRp3504
(dp3505
g73
(dp3506
sg82
g3491
sg75
(lp3507
g68
(g69
g70
NtRp3508
(dp3509
g73
(dp3510
g81
I5
ssg82
g3504
sg75
(lp3511
S'C:\\Python27\\web2py\\applications\\Graficos\\sessions\\127.0.0.1-e9976b61-6786-4a10-a425-02bc0463396e'
p3512
asbasbasbag68
(g84
g70
NtRp3513
(dp3514
g73
(dp3515
sg82
g2925
sg75
(lp3516
g68
(g89
g70
NtRp3517
(dp3518
g73
(dp3519
g93
g94
ssg82
g3513
sg75
(lp3520
S'session_id'
p3521
asbag68
(g89
g70
NtRp3522
(dp3523
g73
(dp3524
g100
g101
ssg82
g3513
sg75
(lp3525
S':'
asbag68
(g89
g70
NtRp3526
(dp3527
g73
(dp3528
sg82
g3513
sg75
(lp3529
g68
(g69
g70
NtRp3530
(dp3531
g73
(dp3532
g81
I5
ssg82
g3526
sg75
(lp3533
S'127.0.0.1-e9976b61-6786-4a10-a425-02bc0463396e'
p3534
asbasbasbag68
(g84
g70
NtRp3535
(dp3536
g73
(dp3537
sg82
g2925
sg75
(lp3538
g68
(g89
g70
NtRp3539
(dp3540
g73
(dp3541
g93
g94
ssg82
g3535
sg75
(lp3542
S'session_id_name'
p3543
asbag68
(g89
g70
NtRp3544
(dp3545
g73
(dp3546
g100
g101
ssg82
g3535
sg75
(lp3547
S':'
asbag68
(g89
g70
NtRp3548
(dp3549
g73
(dp3550
sg82
g3535
sg75
(lp3551
g68
(g69
g70
NtRp3552
(dp3553
g73
(dp3554
g81
I5
ssg82
g3548
sg75
(lp3555
g2982
asbasbasbag68
(g84
g70
NtRp3556
(dp3557
g73
(dp3558
sg82
g2925
sg75
(lp3559
g68
(g89
g70
NtRp3560
(dp3561
g73
(dp3562
g93
g94
ssg82
g3556
sg75
(lp3563
S'session_new'
p3564
asbag68
(g89
g70
NtRp3565
(dp3566
g73
(dp3567
g100
g101
ssg82
g3556
sg75
(lp3568
S':'
asbag68
(g89
g70
NtRp3569
(dp3570
g73
(dp3571
sg82
g3556
sg75
(lp3572
g68
(g69
g70
NtRp3573
(dp3574
g73
(dp3575
g81
I5
ssg82
g3569
sg75
(lp3576
g1502
asbasbasbag68
(g84
g70
NtRp3577
(dp3578
g73
(dp3579
sg82
g2925
sg75
(lp3580
g68
(g89
g70
NtRp3581
(dp3582
g73
(dp3583
g93
g94
ssg82
g3577
sg75
(lp3584
S'status'
p3585
asbag68
(g89
g70
NtRp3586
(dp3587
g73
(dp3588
g100
g101
ssg82
g3577
sg75
(lp3589
S':'
asbag68
(g89
g70
NtRp3590
(dp3591
g73
(dp3592
sg82
g3577
sg75
(lp3593
g68
(g69
g70
NtRp3594
(dp3595
g73
(dp3596
g81
I5
ssg82
g3590
sg75
(lp3597
S'200'
p3598
asbasbasbag68
(g84
g70
NtRp3599
(dp3600
g73
(dp3601
sg82
g2925
sg75
(lp3602
g68
(g89
g70
NtRp3603
(dp3604
g73
(dp3605
g93
g94
ssg82
g3599
sg75
(lp3606
g2166
asbag68
(g89
g70
NtRp3607
(dp3608
g73
(dp3609
g100
g101
ssg82
g3599
sg75
(lp3610
S':'
asbag68
(g89
g70
NtRp3611
(dp3612
g73
(dp3613
sg82
g3599
sg75
(lp3614
g68
(g69
g70
NtRp3615
(dp3616
g73
(dp3617
g81
I5
ssg82
g3611
sg75
(lp3618
g2179
asbasbasbag68
(g84
g70
NtRp3619
(dp3620
g73
(dp3621
sg82
g2925
sg75
(lp3622
g68
(g89
g70
NtRp3623
(dp3624
g73
(dp3625
g93
g94
ssg82
g3619
sg75
(lp3626
S'view'
p3627
asbag68
(g89
g70
NtRp3628
(dp3629
g73
(dp3630
g100
g101
ssg82
g3619
sg75
(lp3631
S':'
asbag68
(g89
g70
NtRp3632
(dp3633
g73
(dp3634
sg82
g3619
sg75
(lp3635
g68
(g69
g70
NtRp3636
(dp3637
g73
(dp3638
g81
I5
ssg82
g3632
sg75
(lp3639
S'tela/index.html'
p3640
asbasbasbasbasbsS'locals'
p3641
(dp3642
S'fromlist'
p3643
S"('highcharts',)"
p3644
sS'e'
S"SyntaxError('invalid syntax', ('applications\\\\Gr...s\\\\modules\\\\highcharts.py', 40, 9, '    def \\n'))"
p3645
sS'name'
p3646
S"'applications.Graficos.modules.highcharts'"
p3647
sg81
S'-1'
p3648
sS'self'
p3649
S'<gluon.custom_import._Web2pyDateTrackerImporter object>'
p3650
sS'globals'
p3651
S"{'A': <class 'gluon.html.A'>, 'B': <class 'gluon.html.B'>, 'BEAUTIFY': <class 'gluon.html.BEAUTIFY'>, 'BODY': <class 'gluon.html.BODY'>, 'BR': <class 'gluon.html.BR'>, 'BUTTON': <class 'gluon.html.BUTTON'>, 'CAT': <class 'gluon.html.CAT'>, 'CENTER': <class 'gluon.html.CENTER'>, 'CLEANUP': <class 'gluon.validators.CLEANUP'>, 'CODE': <class 'gluon.html.CODE'>, ...}"
p3652
sS'call_begin_end'
p3653
g111
sg3641
S"{'A': <class 'gluon.html.A'>, 'B': <class 'gluon.html.B'>, 'BEAUTIFY': <class 'gluon.html.BEAUTIFY'>, 'BODY': <class 'gluon.html.BODY'>, 'BR': <class 'gluon.html.BR'>, 'BUTTON': <class 'gluon.html.BUTTON'>, 'CAT': <class 'gluon.html.CAT'>, 'CENTER': <class 'gluon.html.CENTER'>, 'CLEANUP': <class 'gluon.validators.CLEANUP'>, 'CODE': <class 'gluon.html.CODE'>, ...}"
p3654
sssS'traceback'
p3655
S'Traceback (most recent call last):\n  File "C:\\Python27\\web2py\\gluon\\restricted.py", line 205, in restricted\n    exec ccode in environment\n  File "C:\\Python27\\web2py\\applications\\Graficos\\controllers/tela.py", line 6, in <module>\n    from highcharts import highcharts\n  File "C:\\Python27\\web2py\\gluon\\custom_import.py", line 289, in __call__\n    globals, locals, fromlist, level)\n  File "C:\\Python27\\web2py\\gluon\\custom_import.py", line 132, in __call__\n    raise e  # Don\'t hide something that went wrong\n  File "applications\\Graficos\\modules\\highcharts.py", line 40\n    def\n       ^\nSyntaxError: invalid syntax\n'
p3656
s.